ARM GAS  /tmp/ccRc6kBV.s 			page 1


   1              		.cpu cortex-m3
   2              		.arch armv7-m
   3              		.fpu softvfp
   4              		.eabi_attribute 20, 1
   5              		.eabi_attribute 21, 1
   6              		.eabi_attribute 23, 3
   7              		.eabi_attribute 24, 1
   8              		.eabi_attribute 25, 1
   9              		.eabi_attribute 26, 1
  10              		.eabi_attribute 30, 1
  11              		.eabi_attribute 34, 1
  12              		.eabi_attribute 18, 4
  13              		.file	"appTasks.cpp"
  14              		.text
  15              	.Ltext0:
  16              		.cfi_sections	.debug_frame
  17              		.section	.rodata.StartControllerTask.str1.4,"aMS",%progbits,1
  18              		.align	2
  19              	.LC0:
  20 0000 4369616F 		.ascii	"Ciao bel from FreeRTOS controller task!\012\000"
  20      2062656C 
  20      2066726F 
  20      6D204672 
  20      65655254 
  21              		.section	.text.StartControllerTask,"ax",%progbits
  22              		.align	1
  23              		.global	StartControllerTask
  24              		.syntax unified
  25              		.thumb
  26              		.thumb_func
  28              	StartControllerTask:
  29              	.LVL0:
  30              	.LFB70:
  31              		.file 1 "Core/Src/appTasks.cpp"
   1:Core/Src/appTasks.cpp **** 
   2:Core/Src/appTasks.cpp **** extern "C"
   3:Core/Src/appTasks.cpp **** {
   4:Core/Src/appTasks.cpp ****   #include "FreeRTOS.h"
   5:Core/Src/appTasks.cpp ****   #include "cmsis_os.h"
   6:Core/Src/appTasks.cpp ****   #include "task.h"
   7:Core/Src/appTasks.cpp **** 
   8:Core/Src/appTasks.cpp ****   #include "main.h"
   9:Core/Src/appTasks.cpp ****   #include "spi.h"
  10:Core/Src/appTasks.cpp ****   #include "usart.h"
  11:Core/Src/appTasks.cpp ****   #include "gpio.h"
  12:Core/Src/appTasks.cpp ****   #include "string.h"
  13:Core/Src/appTasks.cpp ****   #include "lis3dh_driver.h"
  14:Core/Src/appTasks.cpp **** }
  15:Core/Src/appTasks.cpp **** #include <stdio.h>
  16:Core/Src/appTasks.cpp **** 
  17:Core/Src/appTasks.cpp **** extern osThreadId_t controllerTaskHandle;
  18:Core/Src/appTasks.cpp **** extern osThreadId_t sensorTaskHandle;
  19:Core/Src/appTasks.cpp **** 
  20:Core/Src/appTasks.cpp **** extern "C" void StartControllerTask(void *argument)
  21:Core/Src/appTasks.cpp **** {
  32              		.loc 1 21 1 view -0
  33              		.cfi_startproc
ARM GAS  /tmp/ccRc6kBV.s 			page 2


  34              		@ args = 0, pretend = 0, frame = 48
  35              		@ frame_needed = 0, uses_anonymous_args = 0
  36              		.loc 1 21 1 is_stmt 0 view .LVU1
  37 0000 10B5     		push	{r4, lr}
  38              	.LCFI0:
  39              		.cfi_def_cfa_offset 8
  40              		.cfi_offset 4, -8
  41              		.cfi_offset 14, -4
  42 0002 8CB0     		sub	sp, sp, #48
  43              	.LCFI1:
  44              		.cfi_def_cfa_offset 56
  22:Core/Src/appTasks.cpp ****   const TickType_t xDelay = 500 / portTICK_PERIOD_MS;
  45              		.loc 1 22 3 is_stmt 1 view .LVU2
  46              	.LVL1:
  23:Core/Src/appTasks.cpp ****   const char text[] = "Ciao bel from FreeRTOS controller task!\n";
  47              		.loc 1 23 3 view .LVU3
  48              		.loc 1 23 14 is_stmt 0 view .LVU4
  49 0004 0DF1040C 		add	ip, sp, #4
  50 0008 0D4C     		ldr	r4, .L4
  51 000a 0FCC     		ldmia	r4!, {r0, r1, r2, r3}
  52              	.LVL2:
  53              		.loc 1 23 14 view .LVU5
  54 000c ACE80F00 		stmia	ip!, {r0, r1, r2, r3}
  55 0010 0FCC     		ldmia	r4!, {r0, r1, r2, r3}
  56 0012 ACE80F00 		stmia	ip!, {r0, r1, r2, r3}
  57 0016 94E80700 		ldm	r4, {r0, r1, r2}
  58 001a ACE80300 		stmia	ip!, {r0, r1}
  59 001e 8CF80020 		strb	r2, [ip]
  60              	.L2:
  24:Core/Src/appTasks.cpp ****   for(;;)
  61              		.loc 1 24 3 is_stmt 1 discriminator 1 view .LVU6
  25:Core/Src/appTasks.cpp ****   {
  26:Core/Src/appTasks.cpp ****     HAL_UART_Transmit(&huart1, (uint8_t *)text, strlen(text), 500);
  62              		.loc 1 26 5 discriminator 1 view .LVU7
  63              		.loc 1 26 55 is_stmt 0 discriminator 1 view .LVU8
  64 0022 01A8     		add	r0, sp, #4
  65 0024 FFF7FEFF 		bl	strlen
  66              	.LVL3:
  67              		.loc 1 26 22 discriminator 1 view .LVU9
  68 0028 4FF4FA73 		mov	r3, #500
  69 002c 82B2     		uxth	r2, r0
  70 002e 01A9     		add	r1, sp, #4
  71 0030 0448     		ldr	r0, .L4+4
  72 0032 FFF7FEFF 		bl	HAL_UART_Transmit
  73              	.LVL4:
  27:Core/Src/appTasks.cpp ****     vTaskDelay(xDelay);
  74              		.loc 1 27 5 is_stmt 1 discriminator 1 view .LVU10
  75              		.loc 1 27 15 is_stmt 0 discriminator 1 view .LVU11
  76 0036 4FF4FA70 		mov	r0, #500
  77 003a FFF7FEFF 		bl	vTaskDelay
  78              	.LVL5:
  24:Core/Src/appTasks.cpp ****   for(;;)
  79              		.loc 1 24 3 is_stmt 1 discriminator 1 view .LVU12
  80 003e F0E7     		b	.L2
  81              	.L5:
  82              		.align	2
  83              	.L4:
ARM GAS  /tmp/ccRc6kBV.s 			page 3


  84 0040 00000000 		.word	.LC0
  85 0044 00000000 		.word	huart1
  86              		.cfi_endproc
  87              	.LFE70:
  89              		.section	.text.HAL_GPIO_EXTI_Callback,"ax",%progbits
  90              		.align	1
  91              		.global	HAL_GPIO_EXTI_Callback
  92              		.syntax unified
  93              		.thumb
  94              		.thumb_func
  96              	HAL_GPIO_EXTI_Callback:
  97              	.LVL6:
  98              	.LFB71:
  28:Core/Src/appTasks.cpp ****   }
  29:Core/Src/appTasks.cpp **** }
  30:Core/Src/appTasks.cpp **** 
  31:Core/Src/appTasks.cpp **** // Accelerometer interrupt
  32:Core/Src/appTasks.cpp **** void HAL_GPIO_EXTI_Callback(uint16_t GPIO_Pin)
  33:Core/Src/appTasks.cpp **** {
  99              		.loc 1 33 1 view -0
 100              		.cfi_startproc
 101              		@ args = 0, pretend = 0, frame = 8
 102              		@ frame_needed = 0, uses_anonymous_args = 0
  34:Core/Src/appTasks.cpp ****   if(GPIO_Pin == ACC_INT1_Pin){
 103              		.loc 1 34 3 view .LVU14
 104              	.LBB2:
 105 0000 0128     		cmp	r0, #1
 106 0002 00D0     		beq	.L12
 107 0004 7047     		bx	lr
 108              	.L12:
 109              	.LBE2:
  33:Core/Src/appTasks.cpp ****   if(GPIO_Pin == ACC_INT1_Pin){
 110              		.loc 1 33 1 is_stmt 0 view .LVU15
 111 0006 00B5     		push	{lr}
 112              	.LCFI2:
 113              		.cfi_def_cfa_offset 4
 114              		.cfi_offset 14, -4
 115 0008 83B0     		sub	sp, sp, #12
 116              	.LCFI3:
 117              		.cfi_def_cfa_offset 16
 118              	.LBB4:
 119              	.LBB3:
  35:Core/Src/appTasks.cpp ****     BaseType_t priority;
 120              		.loc 1 35 5 is_stmt 1 view .LVU16
  36:Core/Src/appTasks.cpp ****     // Sensor task notification
  37:Core/Src/appTasks.cpp ****     vTaskNotifyGiveFromISR( sensorTaskHandle, &priority );
 121              		.loc 1 37 5 view .LVU17
 122              		.loc 1 37 27 is_stmt 0 view .LVU18
 123 000a 01A9     		add	r1, sp, #4
 124 000c 034B     		ldr	r3, .L13
 125 000e 1868     		ldr	r0, [r3]
 126              	.LVL7:
 127              		.loc 1 37 27 view .LVU19
 128 0010 FFF7FEFF 		bl	vTaskNotifyGiveFromISR
 129              	.LVL8:
 130              	.LBE3:
 131              	.LBE4:
ARM GAS  /tmp/ccRc6kBV.s 			page 4


  38:Core/Src/appTasks.cpp ****   }
  39:Core/Src/appTasks.cpp **** }
 132              		.loc 1 39 1 view .LVU20
 133 0014 03B0     		add	sp, sp, #12
 134              	.LCFI4:
 135              		.cfi_def_cfa_offset 4
 136              		@ sp needed
 137 0016 5DF804FB 		ldr	pc, [sp], #4
 138              	.L14:
 139 001a 00BF     		.align	2
 140              	.L13:
 141 001c 00000000 		.word	sensorTaskHandle
 142              		.cfi_endproc
 143              	.LFE71:
 145              		.section	.rodata.StartSensorTask.str1.4,"aMS",%progbits,1
 146              		.align	2
 147              	.LC1:
 148 0000 53656E73 		.ascii	"Sensor task, whoiam: 0x%02X \012\000"
 148      6F722074 
 148      61736B2C 
 148      2077686F 
 148      69616D3A 
 149 001e 0000     		.align	2
 150              	.LC2:
 151 0020 53656E73 		.ascii	"Sensor task, whoiam reding error\012\000"
 151      6F722074 
 151      61736B2C 
 151      2077686F 
 151      69616D20 
 152              		.section	.text.StartSensorTask,"ax",%progbits
 153              		.align	1
 154              		.global	StartSensorTask
 155              		.syntax unified
 156              		.thumb
 157              		.thumb_func
 159              	StartSensorTask:
 160              	.LVL9:
 161              	.LFB72:
  40:Core/Src/appTasks.cpp **** 
  41:Core/Src/appTasks.cpp **** extern "C" void StartSensorTask(void *argument)
  42:Core/Src/appTasks.cpp **** {
 162              		.loc 1 42 1 is_stmt 1 view -0
 163              		.cfi_startproc
 164              		@ args = 0, pretend = 0, frame = 48
 165              		@ frame_needed = 0, uses_anonymous_args = 0
 166              		.loc 1 42 1 is_stmt 0 view .LVU22
 167 0000 10B5     		push	{r4, lr}
 168              	.LCFI5:
 169              		.cfi_def_cfa_offset 8
 170              		.cfi_offset 4, -8
 171              		.cfi_offset 14, -4
 172 0002 8CB0     		sub	sp, sp, #48
 173              	.LCFI6:
 174              		.cfi_def_cfa_offset 56
  43:Core/Src/appTasks.cpp ****   const TickType_t xDelay = 500 / portTICK_PERIOD_MS;
 175              		.loc 1 43 3 is_stmt 1 view .LVU23
 176              	.LVL10:
ARM GAS  /tmp/ccRc6kBV.s 			page 5


  44:Core/Src/appTasks.cpp ****   char text[40];
 177              		.loc 1 44 3 view .LVU24
  45:Core/Src/appTasks.cpp ****   uint8_t whoiam;
 178              		.loc 1 45 3 view .LVU25
  46:Core/Src/appTasks.cpp ****   if( LIS3DH_GetWHO_AM_I(&whoiam) ){
 179              		.loc 1 46 3 view .LVU26
 180              		.loc 1 46 25 is_stmt 0 view .LVU27
 181 0004 0DF10700 		add	r0, sp, #7
 182              	.LVL11:
 183              		.loc 1 46 25 view .LVU28
 184 0008 FFF7FEFF 		bl	LIS3DH_GetWHO_AM_I
 185              	.LVL12:
 186              		.loc 1 46 3 view .LVU29
 187 000c B8B1     		cbz	r0, .L16
  47:Core/Src/appTasks.cpp ****     sprintf( text, "Sensor task, whoiam: 0x%02X \n", whoiam );
 188              		.loc 1 47 5 is_stmt 1 view .LVU30
 189              		.loc 1 47 12 is_stmt 0 view .LVU31
 190 000e 9DF80720 		ldrb	r2, [sp, #7]	@ zero_extendqisi2
 191 0012 1149     		ldr	r1, .L20
 192 0014 02A8     		add	r0, sp, #8
 193 0016 FFF7FEFF 		bl	sprintf
 194              	.LVL13:
 195              	.L17:
  48:Core/Src/appTasks.cpp ****   }else{
  49:Core/Src/appTasks.cpp ****     sprintf( text, "Sensor task, whoiam reding error\n" );
  50:Core/Src/appTasks.cpp ****   }
  51:Core/Src/appTasks.cpp ****   LIS3DH_SetODR( LIS3DH_ODR_25Hz );
 196              		.loc 1 51 3 is_stmt 1 view .LVU32
 197              		.loc 1 51 16 is_stmt 0 view .LVU33
 198 001a 0320     		movs	r0, #3
 199 001c FFF7FEFF 		bl	LIS3DH_SetODR
 200              	.LVL14:
  52:Core/Src/appTasks.cpp ****   HAL_UART_Transmit(&huart1, (uint8_t *)text, strlen(text), 1000);    vTaskDelay(xDelay);
 201              		.loc 1 52 3 is_stmt 1 view .LVU34
 202              		.loc 1 52 53 is_stmt 0 view .LVU35
 203 0020 02A8     		add	r0, sp, #8
 204 0022 FFF7FEFF 		bl	strlen
 205              	.LVL15:
 206              		.loc 1 52 20 view .LVU36
 207 0026 4FF47A73 		mov	r3, #1000
 208 002a 82B2     		uxth	r2, r0
 209 002c 02A9     		add	r1, sp, #8
 210 002e 0B48     		ldr	r0, .L20+4
 211 0030 FFF7FEFF 		bl	HAL_UART_Transmit
 212              	.LVL16:
 213              		.loc 1 52 71 is_stmt 1 view .LVU37
 214              		.loc 1 52 81 is_stmt 0 view .LVU38
 215 0034 4FF4FA70 		mov	r0, #500
 216 0038 FFF7FEFF 		bl	vTaskDelay
 217              	.LVL17:
 218              	.L18:
  53:Core/Src/appTasks.cpp **** 
  54:Core/Src/appTasks.cpp ****   for(;;)
 219              		.loc 1 54 3 is_stmt 1 discriminator 1 view .LVU39
 220              		.loc 1 54 3 discriminator 1 view .LVU40
 221 003c FEE7     		b	.L18
 222              	.L16:
ARM GAS  /tmp/ccRc6kBV.s 			page 6


  49:Core/Src/appTasks.cpp ****   }
 223              		.loc 1 49 5 view .LVU41
  49:Core/Src/appTasks.cpp ****   }
 224              		.loc 1 49 12 is_stmt 0 view .LVU42
 225 003e 0DF1080C 		add	ip, sp, #8
 226 0042 074C     		ldr	r4, .L20+8
 227 0044 0FCC     		ldmia	r4!, {r0, r1, r2, r3}
 228 0046 ACE80F00 		stmia	ip!, {r0, r1, r2, r3}
 229 004a 0FCC     		ldmia	r4!, {r0, r1, r2, r3}
 230 004c ACE80F00 		stmia	ip!, {r0, r1, r2, r3}
 231 0050 2368     		ldr	r3, [r4]
 232 0052 ACF80030 		strh	r3, [ip]	@ movhi
 233 0056 E0E7     		b	.L17
 234              	.L21:
 235              		.align	2
 236              	.L20:
 237 0058 00000000 		.word	.LC1
 238 005c 00000000 		.word	huart1
 239 0060 20000000 		.word	.LC2
 240              		.cfi_endproc
 241              	.LFE72:
 243              		.text
 244              	.Letext0:
 245              		.file 2 "/home/luca/gcc-arm-none-eabi-10.3-2021.10/arm-none-eabi/include/machine/_default_types.h"
 246              		.file 3 "/home/luca/gcc-arm-none-eabi-10.3-2021.10/arm-none-eabi/include/sys/_stdint.h"
 247              		.file 4 "Middlewares/Third_Party/FreeRTOS/Source/portable/GCC/ARM_CM3/portmacro.h"
 248              		.file 5 "Middlewares/Third_Party/FreeRTOS/Source/CMSIS_RTOS_V2/cmsis_os2.h"
 249              		.file 6 "Drivers/CMSIS/Device/ST/STM32F1xx/Include/stm32f103xb.h"
 250              		.file 7 "Drivers/STM32F1xx_HAL_Driver/Inc/stm32f1xx_hal_def.h"
 251              		.file 8 "Drivers/STM32F1xx_HAL_Driver/Inc/stm32f1xx_hal_dma.h"
 252              		.file 9 "Drivers/STM32F1xx_HAL_Driver/Inc/stm32f1xx_hal_uart.h"
 253              		.file 10 "Core/Inc/lis3dh_driver.h"
 254              		.file 11 "Core/Inc/usart.h"
 255              		.file 12 "/home/luca/gcc-arm-none-eabi-10.3-2021.10/arm-none-eabi/include/stdio.h"
 256              		.file 13 "/home/luca/gcc-arm-none-eabi-10.3-2021.10/arm-none-eabi/include/string.h"
 257              		.file 14 "Middlewares/Third_Party/FreeRTOS/Source/include/task.h"
ARM GAS  /tmp/ccRc6kBV.s 			page 7


DEFINED SYMBOLS
                            *ABS*:0000000000000000 appTasks.cpp
     /tmp/ccRc6kBV.s:18     .rodata.StartControllerTask.str1.4:0000000000000000 $d
     /tmp/ccRc6kBV.s:22     .text.StartControllerTask:0000000000000000 $t
     /tmp/ccRc6kBV.s:28     .text.StartControllerTask:0000000000000000 StartControllerTask
     /tmp/ccRc6kBV.s:84     .text.StartControllerTask:0000000000000040 $d
     /tmp/ccRc6kBV.s:90     .text.HAL_GPIO_EXTI_Callback:0000000000000000 $t
     /tmp/ccRc6kBV.s:96     .text.HAL_GPIO_EXTI_Callback:0000000000000000 HAL_GPIO_EXTI_Callback
     /tmp/ccRc6kBV.s:141    .text.HAL_GPIO_EXTI_Callback:000000000000001c $d
     /tmp/ccRc6kBV.s:146    .rodata.StartSensorTask.str1.4:0000000000000000 $d
     /tmp/ccRc6kBV.s:153    .text.StartSensorTask:0000000000000000 $t
     /tmp/ccRc6kBV.s:159    .text.StartSensorTask:0000000000000000 StartSensorTask
     /tmp/ccRc6kBV.s:237    .text.StartSensorTask:0000000000000058 $d

UNDEFINED SYMBOLS
strlen
HAL_UART_Transmit
vTaskDelay
huart1
vTaskNotifyGiveFromISR
sensorTaskHandle
LIS3DH_GetWHO_AM_I
sprintf
LIS3DH_SetODR
