ARM GAS  /tmp/ccQFuNLL.s 			page 1


   1              		.cpu cortex-m3
   2              		.arch armv7-m
   3              		.fpu softvfp
   4              		.eabi_attribute 20, 1
   5              		.eabi_attribute 21, 1
   6              		.eabi_attribute 23, 3
   7              		.eabi_attribute 24, 1
   8              		.eabi_attribute 25, 1
   9              		.eabi_attribute 26, 1
  10              		.eabi_attribute 30, 1
  11              		.eabi_attribute 34, 1
  12              		.eabi_attribute 18, 4
  13              		.file	"lis3dh_driver.c"
  14              		.text
  15              	.Ltext0:
  16              		.cfi_sections	.debug_frame
  17              		.section	.text.LIS3DH_GetWHO_AM_I,"ax",%progbits
  18              		.align	1
  19              		.global	LIS3DH_GetWHO_AM_I
  20              		.syntax unified
  21              		.thumb
  22              		.thumb_func
  24              	LIS3DH_GetWHO_AM_I:
  25              	.LVL0:
  26              	.LFB0:
  27              		.file 1 "Core/Src/lis3dh_driver.c"
   1:Core/Src/lis3dh_driver.c **** /******************** (C) COPYRIGHT 2012 STMicroelectronics ********************
   2:Core/Src/lis3dh_driver.c **** * File Name          : LIS3DH_driver.c
   3:Core/Src/lis3dh_driver.c **** * Author             : MSH Application Team
   4:Core/Src/lis3dh_driver.c **** * Author             : Fabio Tota
   5:Core/Src/lis3dh_driver.c **** * Version            : $Revision:$
   6:Core/Src/lis3dh_driver.c **** * Date               : $Date:$
   7:Core/Src/lis3dh_driver.c **** * Description        : LIS3DH driver file
   8:Core/Src/lis3dh_driver.c **** *                      
   9:Core/Src/lis3dh_driver.c **** * HISTORY:
  10:Core/Src/lis3dh_driver.c **** * Date               |	Modification                    |	Author
  11:Core/Src/lis3dh_driver.c **** * 24/06/2011         |	Initial Revision                |	Fabio Tota
  12:Core/Src/lis3dh_driver.c **** * 11/06/2012         |	Support for multiple drivers in the same program |	Abhishek Anand
  13:Core/Src/lis3dh_driver.c **** 
  14:Core/Src/lis3dh_driver.c **** ********************************************************************************
  15:Core/Src/lis3dh_driver.c **** * THE PRESENT FIRMWARE WHICH IS FOR GUIDANCE ONLY AIMS AT PROVIDING CUSTOMERS
  16:Core/Src/lis3dh_driver.c **** * WITH CODING INFORMATION REGARDING THEIR PRODUCTS IN ORDER FOR THEM TO SAVE TIME.
  17:Core/Src/lis3dh_driver.c **** * AS A RESULT, STMICROELECTRONICS SHALL NOT BE HELD LIABLE FOR ANY DIRECT,
  18:Core/Src/lis3dh_driver.c **** * INDIRECT OR CONSEQUENTIAL DAMAGES WITH RESPECT TO ANY CLAIMS ARISING FROM THE
  19:Core/Src/lis3dh_driver.c **** * CONTENT OF SUCH FIRMWARE AND/OR THE USE MADE BY CUSTOMERS OF THE CODING
  20:Core/Src/lis3dh_driver.c **** * INFORMATION CONTAINED HEREIN IN CONNECTION WITH THEIR PRODUCTS.
  21:Core/Src/lis3dh_driver.c **** *
  22:Core/Src/lis3dh_driver.c **** * THIS SOFTWARE IS SPECIFICALLY DESIGNED FOR EXCLUSIVE USE WITH ST PARTS.
  23:Core/Src/lis3dh_driver.c **** *
  24:Core/Src/lis3dh_driver.c **** *******************************************************************************/
  25:Core/Src/lis3dh_driver.c **** 
  26:Core/Src/lis3dh_driver.c **** /* Includes ------------------------------------------------------------------*/
  27:Core/Src/lis3dh_driver.c **** #include "lis3dh_driver.h"
  28:Core/Src/lis3dh_driver.c **** #include "stdint.h"
  29:Core/Src/lis3dh_driver.c **** /* Private macro -------------------------------------------------------------*/
  30:Core/Src/lis3dh_driver.c **** /* Private variables ---------------------------------------------------------*/
  31:Core/Src/lis3dh_driver.c **** /* Private function prototypes -----------------------------------------------*/
ARM GAS  /tmp/ccQFuNLL.s 			page 2


  32:Core/Src/lis3dh_driver.c **** 
  33:Core/Src/lis3dh_driver.c **** /*******************************************************************************
  34:Core/Src/lis3dh_driver.c **** * Function Name		: LIS3DH_ReadReg
  35:Core/Src/lis3dh_driver.c **** * Description		: Generic Reading function. It must be fullfilled with either
  36:Core/Src/lis3dh_driver.c **** *			: I2C or SPI reading functions					
  37:Core/Src/lis3dh_driver.c **** * Input			: Register Address
  38:Core/Src/lis3dh_driver.c **** * Output		: Data REad
  39:Core/Src/lis3dh_driver.c **** * Return		: None
  40:Core/Src/lis3dh_driver.c **** *******************************************************************************/
  41:Core/Src/lis3dh_driver.c **** extern uint8_t LIS3DH_ReadReg(uint8_t Reg, uint8_t* Data);
  42:Core/Src/lis3dh_driver.c **** 
  43:Core/Src/lis3dh_driver.c **** 
  44:Core/Src/lis3dh_driver.c **** /*******************************************************************************
  45:Core/Src/lis3dh_driver.c **** * Function Name		: LIS3DH_WriteReg
  46:Core/Src/lis3dh_driver.c **** * Description		: Generic Writing function. It must be fullfilled with either
  47:Core/Src/lis3dh_driver.c **** *			: I2C or SPI writing function
  48:Core/Src/lis3dh_driver.c **** * Input			: Register Address, Data to be written
  49:Core/Src/lis3dh_driver.c **** * Output		: None
  50:Core/Src/lis3dh_driver.c **** * Return		: None
  51:Core/Src/lis3dh_driver.c **** *******************************************************************************/
  52:Core/Src/lis3dh_driver.c **** extern uint8_t LIS3DH_WriteReg(uint8_t WriteAddr, uint8_t Data);
  53:Core/Src/lis3dh_driver.c **** 
  54:Core/Src/lis3dh_driver.c **** /* Private functions ---------------------------------------------------------*/
  55:Core/Src/lis3dh_driver.c **** 
  56:Core/Src/lis3dh_driver.c **** /*******************************************************************************
  57:Core/Src/lis3dh_driver.c **** * Function Name  : LIS3DH_GetWHO_AM_I
  58:Core/Src/lis3dh_driver.c **** * Description    : Read identification code by WHO_AM_I register
  59:Core/Src/lis3dh_driver.c **** * Input          : Char to empty by Device identification Value
  60:Core/Src/lis3dh_driver.c **** * Output         : None
  61:Core/Src/lis3dh_driver.c **** * Return         : Status [value of FSS]
  62:Core/Src/lis3dh_driver.c **** *******************************************************************************/
  63:Core/Src/lis3dh_driver.c **** status_t LIS3DH_GetWHO_AM_I(u8_t* val){
  28              		.loc 1 63 39 view -0
  29              		.cfi_startproc
  30              		@ args = 0, pretend = 0, frame = 0
  31              		@ frame_needed = 0, uses_anonymous_args = 0
  32              		.loc 1 63 39 is_stmt 0 view .LVU1
  33 0000 08B5     		push	{r3, lr}
  34              	.LCFI0:
  35              		.cfi_def_cfa_offset 8
  36              		.cfi_offset 3, -8
  37              		.cfi_offset 14, -4
  38 0002 0146     		mov	r1, r0
  64:Core/Src/lis3dh_driver.c ****   
  65:Core/Src/lis3dh_driver.c ****   if( !LIS3DH_ReadReg(LIS3DH_WHO_AM_I, val) )
  39              		.loc 1 65 3 is_stmt 1 view .LVU2
  40              		.loc 1 65 8 is_stmt 0 view .LVU3
  41 0004 0F20     		movs	r0, #15
  42              	.LVL1:
  43              		.loc 1 65 8 view .LVU4
  44 0006 FFF7FEFF 		bl	LIS3DH_ReadReg
  45              	.LVL2:
  46              		.loc 1 65 5 view .LVU5
  47 000a 00B1     		cbz	r0, .L2
  66:Core/Src/lis3dh_driver.c ****     return MEMS_ERROR;
  67:Core/Src/lis3dh_driver.c ****   
  68:Core/Src/lis3dh_driver.c ****   return MEMS_SUCCESS;
ARM GAS  /tmp/ccQFuNLL.s 			page 3


  48              		.loc 1 68 10 view .LVU6
  49 000c 0120     		movs	r0, #1
  50              	.L2:
  69:Core/Src/lis3dh_driver.c **** }
  51              		.loc 1 69 1 view .LVU7
  52 000e 08BD     		pop	{r3, pc}
  53              		.cfi_endproc
  54              	.LFE0:
  56              		.section	.text.LIS3DH_GetStatusAUX,"ax",%progbits
  57              		.align	1
  58              		.global	LIS3DH_GetStatusAUX
  59              		.syntax unified
  60              		.thumb
  61              		.thumb_func
  63              	LIS3DH_GetStatusAUX:
  64              	.LVL3:
  65              	.LFB1:
  70:Core/Src/lis3dh_driver.c **** 
  71:Core/Src/lis3dh_driver.c **** 
  72:Core/Src/lis3dh_driver.c **** /*******************************************************************************
  73:Core/Src/lis3dh_driver.c **** * Function Name  : LIS3DH_GetStatusAUX
  74:Core/Src/lis3dh_driver.c **** * Description    : Read the AUX status register
  75:Core/Src/lis3dh_driver.c **** * Input          : Char to empty by status register buffer
  76:Core/Src/lis3dh_driver.c **** * Output         : None
  77:Core/Src/lis3dh_driver.c **** * Return         : Status [MEMS_ERROR, MEMS_SUCCESS]
  78:Core/Src/lis3dh_driver.c **** *******************************************************************************/
  79:Core/Src/lis3dh_driver.c **** status_t LIS3DH_GetStatusAUX(u8_t* val) {
  66              		.loc 1 79 41 is_stmt 1 view -0
  67              		.cfi_startproc
  68              		@ args = 0, pretend = 0, frame = 0
  69              		@ frame_needed = 0, uses_anonymous_args = 0
  70              		.loc 1 79 41 is_stmt 0 view .LVU9
  71 0000 08B5     		push	{r3, lr}
  72              	.LCFI1:
  73              		.cfi_def_cfa_offset 8
  74              		.cfi_offset 3, -8
  75              		.cfi_offset 14, -4
  76 0002 0146     		mov	r1, r0
  80:Core/Src/lis3dh_driver.c ****   
  81:Core/Src/lis3dh_driver.c ****   if( !LIS3DH_ReadReg(LIS3DH_STATUS_AUX, val) )
  77              		.loc 1 81 3 is_stmt 1 view .LVU10
  78              		.loc 1 81 8 is_stmt 0 view .LVU11
  79 0004 0720     		movs	r0, #7
  80              	.LVL4:
  81              		.loc 1 81 8 view .LVU12
  82 0006 FFF7FEFF 		bl	LIS3DH_ReadReg
  83              	.LVL5:
  84              		.loc 1 81 5 view .LVU13
  85 000a 00B1     		cbz	r0, .L5
  82:Core/Src/lis3dh_driver.c ****     return MEMS_ERROR;
  83:Core/Src/lis3dh_driver.c ****   
  84:Core/Src/lis3dh_driver.c ****   return MEMS_SUCCESS;  
  86              		.loc 1 84 10 view .LVU14
  87 000c 0120     		movs	r0, #1
  88              	.L5:
  85:Core/Src/lis3dh_driver.c **** }
  89              		.loc 1 85 1 view .LVU15
ARM GAS  /tmp/ccQFuNLL.s 			page 4


  90 000e 08BD     		pop	{r3, pc}
  91              		.cfi_endproc
  92              	.LFE1:
  94              		.section	.text.LIS3DH_GetStatusAUXBit,"ax",%progbits
  95              		.align	1
  96              		.global	LIS3DH_GetStatusAUXBit
  97              		.syntax unified
  98              		.thumb
  99              		.thumb_func
 101              	LIS3DH_GetStatusAUXBit:
 102              	.LVL6:
 103              	.LFB2:
  86:Core/Src/lis3dh_driver.c **** 
  87:Core/Src/lis3dh_driver.c **** 
  88:Core/Src/lis3dh_driver.c **** 
  89:Core/Src/lis3dh_driver.c **** /*******************************************************************************
  90:Core/Src/lis3dh_driver.c **** * Function Name  : LIS3DH_GetStatusAUXBIT
  91:Core/Src/lis3dh_driver.c **** * Description    : Read the AUX status register BIT
  92:Core/Src/lis3dh_driver.c **** * Input          : LIS3DH_STATUS_AUX_321OR, LIS3DH_STATUS_AUX_3OR, LIS3DH_STATUS_AUX_2OR, LIS3DH_ST
  93:Core/Src/lis3dh_driver.c ****                    LIS3DH_STATUS_AUX_321DA, LIS3DH_STATUS_AUX_3DA, LIS3DH_STATUS_AUX_2DA, LIS3DH_ST
  94:Core/Src/lis3dh_driver.c **** * Output         : None
  95:Core/Src/lis3dh_driver.c **** * Return         : Status of BIT [MEMS_ERROR, MEMS_SUCCESS]
  96:Core/Src/lis3dh_driver.c **** *******************************************************************************/
  97:Core/Src/lis3dh_driver.c **** status_t LIS3DH_GetStatusAUXBit(u8_t statusBIT, u8_t* val) {
 104              		.loc 1 97 60 is_stmt 1 view -0
 105              		.cfi_startproc
 106              		@ args = 0, pretend = 0, frame = 8
 107              		@ frame_needed = 0, uses_anonymous_args = 0
 108              		.loc 1 97 60 is_stmt 0 view .LVU17
 109 0000 30B5     		push	{r4, r5, lr}
 110              	.LCFI2:
 111              		.cfi_def_cfa_offset 12
 112              		.cfi_offset 4, -12
 113              		.cfi_offset 5, -8
 114              		.cfi_offset 14, -4
 115 0002 83B0     		sub	sp, sp, #12
 116              	.LCFI3:
 117              		.cfi_def_cfa_offset 24
 118 0004 0446     		mov	r4, r0
 119 0006 0D46     		mov	r5, r1
  98:Core/Src/lis3dh_driver.c ****   u8_t value;  
 120              		.loc 1 98 3 is_stmt 1 view .LVU18
  99:Core/Src/lis3dh_driver.c ****   
 100:Core/Src/lis3dh_driver.c ****   if( !LIS3DH_ReadReg(LIS3DH_STATUS_AUX, &value) )
 121              		.loc 1 100 3 view .LVU19
 122              		.loc 1 100 8 is_stmt 0 view .LVU20
 123 0008 0DF10701 		add	r1, sp, #7
 124              	.LVL7:
 125              		.loc 1 100 8 view .LVU21
 126 000c 0720     		movs	r0, #7
 127              	.LVL8:
 128              		.loc 1 100 8 view .LVU22
 129 000e FFF7FEFF 		bl	LIS3DH_ReadReg
 130              	.LVL9:
 131              		.loc 1 100 5 view .LVU23
 132 0012 0346     		mov	r3, r0
 133 0014 D0B1     		cbz	r0, .L8
ARM GAS  /tmp/ccQFuNLL.s 			page 5


 101:Core/Src/lis3dh_driver.c ****     return MEMS_ERROR;
 102:Core/Src/lis3dh_driver.c ****   
 103:Core/Src/lis3dh_driver.c ****   if(statusBIT == LIS3DH_STATUS_AUX_321OR){
 134              		.loc 1 103 3 is_stmt 1 view .LVU24
 135              		.loc 1 103 5 is_stmt 0 view .LVU25
 136 0016 802C     		cmp	r4, #128
 137 0018 0FD0     		beq	.L26
 104:Core/Src/lis3dh_driver.c ****     if(value &= LIS3DH_STATUS_AUX_321OR){     
 105:Core/Src/lis3dh_driver.c ****       *val = MEMS_SET;
 106:Core/Src/lis3dh_driver.c ****       return MEMS_SUCCESS;
 107:Core/Src/lis3dh_driver.c ****     }
 108:Core/Src/lis3dh_driver.c ****     else{  
 109:Core/Src/lis3dh_driver.c ****       *val = MEMS_RESET;
 110:Core/Src/lis3dh_driver.c ****       return MEMS_SUCCESS;
 111:Core/Src/lis3dh_driver.c ****     }   
 112:Core/Src/lis3dh_driver.c ****   }
 113:Core/Src/lis3dh_driver.c ****   
 114:Core/Src/lis3dh_driver.c ****   if(statusBIT == LIS3DH_STATUS_AUX_3OR){
 138              		.loc 1 114 3 is_stmt 1 view .LVU26
 139              		.loc 1 114 5 is_stmt 0 view .LVU27
 140 001a 402C     		cmp	r4, #64
 141 001c 1DD0     		beq	.L27
 115:Core/Src/lis3dh_driver.c ****     if(value &= LIS3DH_STATUS_AUX_3OR){     
 116:Core/Src/lis3dh_driver.c ****       *val = MEMS_SET;
 117:Core/Src/lis3dh_driver.c ****       return MEMS_SUCCESS;
 118:Core/Src/lis3dh_driver.c ****     }
 119:Core/Src/lis3dh_driver.c ****     else{  
 120:Core/Src/lis3dh_driver.c ****       *val = MEMS_RESET;
 121:Core/Src/lis3dh_driver.c ****       return MEMS_SUCCESS;
 122:Core/Src/lis3dh_driver.c ****     }     
 123:Core/Src/lis3dh_driver.c ****   }
 124:Core/Src/lis3dh_driver.c ****   
 125:Core/Src/lis3dh_driver.c ****   if(statusBIT == LIS3DH_STATUS_AUX_2OR){
 142              		.loc 1 125 3 is_stmt 1 view .LVU28
 143              		.loc 1 125 5 is_stmt 0 view .LVU29
 144 001e 202C     		cmp	r4, #32
 145 0020 29D0     		beq	.L28
 126:Core/Src/lis3dh_driver.c ****     if(value &= LIS3DH_STATUS_AUX_2OR){     
 127:Core/Src/lis3dh_driver.c ****       *val = MEMS_SET;
 128:Core/Src/lis3dh_driver.c ****       return MEMS_SUCCESS;
 129:Core/Src/lis3dh_driver.c ****     }
 130:Core/Src/lis3dh_driver.c ****     else{  
 131:Core/Src/lis3dh_driver.c ****       *val = MEMS_RESET;
 132:Core/Src/lis3dh_driver.c ****       return MEMS_SUCCESS;
 133:Core/Src/lis3dh_driver.c ****     }    
 134:Core/Src/lis3dh_driver.c ****   }
 135:Core/Src/lis3dh_driver.c ****   
 136:Core/Src/lis3dh_driver.c ****   if(statusBIT == LIS3DH_STATUS_AUX_1OR){
 146              		.loc 1 136 3 is_stmt 1 view .LVU30
 147              		.loc 1 136 5 is_stmt 0 view .LVU31
 148 0022 102C     		cmp	r4, #16
 149 0024 35D0     		beq	.L29
 137:Core/Src/lis3dh_driver.c ****     if(value &= LIS3DH_STATUS_AUX_1OR){     
 138:Core/Src/lis3dh_driver.c ****       *val = MEMS_SET;
 139:Core/Src/lis3dh_driver.c ****       return MEMS_SUCCESS;
 140:Core/Src/lis3dh_driver.c ****     }
 141:Core/Src/lis3dh_driver.c ****     else{  
ARM GAS  /tmp/ccQFuNLL.s 			page 6


 142:Core/Src/lis3dh_driver.c ****       *val = MEMS_RESET;
 143:Core/Src/lis3dh_driver.c ****       return MEMS_SUCCESS;
 144:Core/Src/lis3dh_driver.c ****     }   
 145:Core/Src/lis3dh_driver.c ****   }
 146:Core/Src/lis3dh_driver.c ****   
 147:Core/Src/lis3dh_driver.c ****   if(statusBIT == LIS3DH_STATUS_AUX_321DA){
 150              		.loc 1 147 3 is_stmt 1 view .LVU32
 151              		.loc 1 147 5 is_stmt 0 view .LVU33
 152 0026 082C     		cmp	r4, #8
 153 0028 41D0     		beq	.L30
 148:Core/Src/lis3dh_driver.c ****     if(value &= LIS3DH_STATUS_AUX_321DA) {     
 149:Core/Src/lis3dh_driver.c ****       *val = MEMS_SET;
 150:Core/Src/lis3dh_driver.c ****       return MEMS_SUCCESS;
 151:Core/Src/lis3dh_driver.c ****     }
 152:Core/Src/lis3dh_driver.c ****     else{  
 153:Core/Src/lis3dh_driver.c ****       *val = MEMS_RESET;
 154:Core/Src/lis3dh_driver.c ****       return MEMS_SUCCESS;
 155:Core/Src/lis3dh_driver.c ****     }   
 156:Core/Src/lis3dh_driver.c ****   }
 157:Core/Src/lis3dh_driver.c ****   
 158:Core/Src/lis3dh_driver.c ****   if(statusBIT == LIS3DH_STATUS_AUX_3DA){
 154              		.loc 1 158 3 is_stmt 1 view .LVU34
 155              		.loc 1 158 5 is_stmt 0 view .LVU35
 156 002a 042C     		cmp	r4, #4
 157 002c 4DD0     		beq	.L31
 159:Core/Src/lis3dh_driver.c ****     if(value &= LIS3DH_STATUS_AUX_3DA){     
 160:Core/Src/lis3dh_driver.c ****       *val = MEMS_SET;
 161:Core/Src/lis3dh_driver.c ****       return MEMS_SUCCESS;
 162:Core/Src/lis3dh_driver.c ****     }
 163:Core/Src/lis3dh_driver.c ****     else{  
 164:Core/Src/lis3dh_driver.c ****       *val = MEMS_RESET;
 165:Core/Src/lis3dh_driver.c ****       return MEMS_SUCCESS;
 166:Core/Src/lis3dh_driver.c ****     }   
 167:Core/Src/lis3dh_driver.c ****   }
 168:Core/Src/lis3dh_driver.c ****   
 169:Core/Src/lis3dh_driver.c ****   if(statusBIT == LIS3DH_STATUS_AUX_2DA){
 158              		.loc 1 169 3 is_stmt 1 view .LVU36
 159              		.loc 1 169 5 is_stmt 0 view .LVU37
 160 002e 022C     		cmp	r4, #2
 161 0030 59D0     		beq	.L32
 170:Core/Src/lis3dh_driver.c ****     if(value &= LIS3DH_STATUS_AUX_2DA){     
 171:Core/Src/lis3dh_driver.c ****       *val = MEMS_SET;
 172:Core/Src/lis3dh_driver.c ****       return MEMS_SUCCESS;
 173:Core/Src/lis3dh_driver.c ****     }
 174:Core/Src/lis3dh_driver.c ****     else{  
 175:Core/Src/lis3dh_driver.c ****       *val = MEMS_RESET;
 176:Core/Src/lis3dh_driver.c ****       return MEMS_SUCCESS;
 177:Core/Src/lis3dh_driver.c ****     }  
 178:Core/Src/lis3dh_driver.c ****   }
 179:Core/Src/lis3dh_driver.c ****   
 180:Core/Src/lis3dh_driver.c ****   if(statusBIT == LIS3DH_STATUS_AUX_1DA){
 162              		.loc 1 180 3 is_stmt 1 view .LVU38
 163              		.loc 1 180 5 is_stmt 0 view .LVU39
 164 0032 012C     		cmp	r4, #1
 165 0034 65D0     		beq	.L33
 181:Core/Src/lis3dh_driver.c ****     if(value &= LIS3DH_STATUS_AUX_1DA){     
 182:Core/Src/lis3dh_driver.c ****       *val = MEMS_SET;
ARM GAS  /tmp/ccQFuNLL.s 			page 7


 183:Core/Src/lis3dh_driver.c ****       return MEMS_SUCCESS;
 184:Core/Src/lis3dh_driver.c ****     }
 185:Core/Src/lis3dh_driver.c ****     else{  
 186:Core/Src/lis3dh_driver.c ****       *val = MEMS_RESET;
 187:Core/Src/lis3dh_driver.c ****       return MEMS_SUCCESS;
 188:Core/Src/lis3dh_driver.c ****     }  
 189:Core/Src/lis3dh_driver.c ****   }  
 190:Core/Src/lis3dh_driver.c ****   return MEMS_ERROR;
 166              		.loc 1 190 10 view .LVU40
 167 0036 0023     		movs	r3, #0
 168 0038 08E0     		b	.L8
 169              	.L26:
 104:Core/Src/lis3dh_driver.c ****       *val = MEMS_SET;
 170              		.loc 1 104 5 is_stmt 1 view .LVU41
 104:Core/Src/lis3dh_driver.c ****       *val = MEMS_SET;
 171              		.loc 1 104 14 is_stmt 0 view .LVU42
 172 003a 9DF80730 		ldrb	r3, [sp, #7]	@ zero_extendqisi2
 173 003e 03F08003 		and	r3, r3, #128
 174 0042 8DF80730 		strb	r3, [sp, #7]
 104:Core/Src/lis3dh_driver.c ****       *val = MEMS_SET;
 175              		.loc 1 104 7 view .LVU43
 176 0046 23B1     		cbz	r3, .L10
 105:Core/Src/lis3dh_driver.c ****       return MEMS_SUCCESS;
 177              		.loc 1 105 7 is_stmt 1 view .LVU44
 105:Core/Src/lis3dh_driver.c ****       return MEMS_SUCCESS;
 178              		.loc 1 105 12 is_stmt 0 view .LVU45
 179 0048 0123     		movs	r3, #1
 180 004a 2B70     		strb	r3, [r5]
 106:Core/Src/lis3dh_driver.c ****     }
 181              		.loc 1 106 7 is_stmt 1 view .LVU46
 182              	.L8:
 191:Core/Src/lis3dh_driver.c **** }
 183              		.loc 1 191 1 is_stmt 0 view .LVU47
 184 004c 1846     		mov	r0, r3
 185 004e 03B0     		add	sp, sp, #12
 186              	.LCFI4:
 187              		.cfi_remember_state
 188              		.cfi_def_cfa_offset 12
 189              		@ sp needed
 190 0050 30BD     		pop	{r4, r5, pc}
 191              	.LVL10:
 192              	.L10:
 193              	.LCFI5:
 194              		.cfi_restore_state
 109:Core/Src/lis3dh_driver.c ****       return MEMS_SUCCESS;
 195              		.loc 1 109 7 is_stmt 1 view .LVU48
 109:Core/Src/lis3dh_driver.c ****       return MEMS_SUCCESS;
 196              		.loc 1 109 12 is_stmt 0 view .LVU49
 197 0052 0023     		movs	r3, #0
 198 0054 2B70     		strb	r3, [r5]
 110:Core/Src/lis3dh_driver.c ****     }   
 199              		.loc 1 110 7 is_stmt 1 view .LVU50
 110:Core/Src/lis3dh_driver.c ****     }   
 200              		.loc 1 110 14 is_stmt 0 view .LVU51
 201 0056 0123     		movs	r3, #1
 202 0058 F8E7     		b	.L8
 203              	.L27:
ARM GAS  /tmp/ccQFuNLL.s 			page 8


 115:Core/Src/lis3dh_driver.c ****       *val = MEMS_SET;
 204              		.loc 1 115 5 is_stmt 1 view .LVU52
 115:Core/Src/lis3dh_driver.c ****       *val = MEMS_SET;
 205              		.loc 1 115 14 is_stmt 0 view .LVU53
 206 005a 9DF80730 		ldrb	r3, [sp, #7]	@ zero_extendqisi2
 207 005e 03F04003 		and	r3, r3, #64
 208 0062 8DF80730 		strb	r3, [sp, #7]
 115:Core/Src/lis3dh_driver.c ****       *val = MEMS_SET;
 209              		.loc 1 115 7 view .LVU54
 210 0066 13B1     		cbz	r3, .L12
 116:Core/Src/lis3dh_driver.c ****       return MEMS_SUCCESS;
 211              		.loc 1 116 7 is_stmt 1 view .LVU55
 116:Core/Src/lis3dh_driver.c ****       return MEMS_SUCCESS;
 212              		.loc 1 116 12 is_stmt 0 view .LVU56
 213 0068 0123     		movs	r3, #1
 214 006a 2B70     		strb	r3, [r5]
 117:Core/Src/lis3dh_driver.c ****     }
 215              		.loc 1 117 7 is_stmt 1 view .LVU57
 117:Core/Src/lis3dh_driver.c ****     }
 216              		.loc 1 117 14 is_stmt 0 view .LVU58
 217 006c EEE7     		b	.L8
 218              	.L12:
 120:Core/Src/lis3dh_driver.c ****       return MEMS_SUCCESS;
 219              		.loc 1 120 7 is_stmt 1 view .LVU59
 120:Core/Src/lis3dh_driver.c ****       return MEMS_SUCCESS;
 220              		.loc 1 120 12 is_stmt 0 view .LVU60
 221 006e 0023     		movs	r3, #0
 222 0070 2B70     		strb	r3, [r5]
 121:Core/Src/lis3dh_driver.c ****     }     
 223              		.loc 1 121 7 is_stmt 1 view .LVU61
 121:Core/Src/lis3dh_driver.c ****     }     
 224              		.loc 1 121 14 is_stmt 0 view .LVU62
 225 0072 0123     		movs	r3, #1
 226 0074 EAE7     		b	.L8
 227              	.L28:
 126:Core/Src/lis3dh_driver.c ****       *val = MEMS_SET;
 228              		.loc 1 126 5 is_stmt 1 view .LVU63
 126:Core/Src/lis3dh_driver.c ****       *val = MEMS_SET;
 229              		.loc 1 126 14 is_stmt 0 view .LVU64
 230 0076 9DF80730 		ldrb	r3, [sp, #7]	@ zero_extendqisi2
 231 007a 03F02003 		and	r3, r3, #32
 232 007e 8DF80730 		strb	r3, [sp, #7]
 126:Core/Src/lis3dh_driver.c ****       *val = MEMS_SET;
 233              		.loc 1 126 7 view .LVU65
 234 0082 13B1     		cbz	r3, .L14
 127:Core/Src/lis3dh_driver.c ****       return MEMS_SUCCESS;
 235              		.loc 1 127 7 is_stmt 1 view .LVU66
 127:Core/Src/lis3dh_driver.c ****       return MEMS_SUCCESS;
 236              		.loc 1 127 12 is_stmt 0 view .LVU67
 237 0084 0123     		movs	r3, #1
 238 0086 2B70     		strb	r3, [r5]
 128:Core/Src/lis3dh_driver.c ****     }
 239              		.loc 1 128 7 is_stmt 1 view .LVU68
 128:Core/Src/lis3dh_driver.c ****     }
 240              		.loc 1 128 14 is_stmt 0 view .LVU69
 241 0088 E0E7     		b	.L8
 242              	.L14:
ARM GAS  /tmp/ccQFuNLL.s 			page 9


 131:Core/Src/lis3dh_driver.c ****       return MEMS_SUCCESS;
 243              		.loc 1 131 7 is_stmt 1 view .LVU70
 131:Core/Src/lis3dh_driver.c ****       return MEMS_SUCCESS;
 244              		.loc 1 131 12 is_stmt 0 view .LVU71
 245 008a 0023     		movs	r3, #0
 246 008c 2B70     		strb	r3, [r5]
 132:Core/Src/lis3dh_driver.c ****     }    
 247              		.loc 1 132 7 is_stmt 1 view .LVU72
 132:Core/Src/lis3dh_driver.c ****     }    
 248              		.loc 1 132 14 is_stmt 0 view .LVU73
 249 008e 0123     		movs	r3, #1
 250 0090 DCE7     		b	.L8
 251              	.L29:
 137:Core/Src/lis3dh_driver.c ****       *val = MEMS_SET;
 252              		.loc 1 137 5 is_stmt 1 view .LVU74
 137:Core/Src/lis3dh_driver.c ****       *val = MEMS_SET;
 253              		.loc 1 137 14 is_stmt 0 view .LVU75
 254 0092 9DF80730 		ldrb	r3, [sp, #7]	@ zero_extendqisi2
 255 0096 03F01003 		and	r3, r3, #16
 256 009a 8DF80730 		strb	r3, [sp, #7]
 137:Core/Src/lis3dh_driver.c ****       *val = MEMS_SET;
 257              		.loc 1 137 7 view .LVU76
 258 009e 13B1     		cbz	r3, .L16
 138:Core/Src/lis3dh_driver.c ****       return MEMS_SUCCESS;
 259              		.loc 1 138 7 is_stmt 1 view .LVU77
 138:Core/Src/lis3dh_driver.c ****       return MEMS_SUCCESS;
 260              		.loc 1 138 12 is_stmt 0 view .LVU78
 261 00a0 0123     		movs	r3, #1
 262 00a2 2B70     		strb	r3, [r5]
 139:Core/Src/lis3dh_driver.c ****     }
 263              		.loc 1 139 7 is_stmt 1 view .LVU79
 139:Core/Src/lis3dh_driver.c ****     }
 264              		.loc 1 139 14 is_stmt 0 view .LVU80
 265 00a4 D2E7     		b	.L8
 266              	.L16:
 142:Core/Src/lis3dh_driver.c ****       return MEMS_SUCCESS;
 267              		.loc 1 142 7 is_stmt 1 view .LVU81
 142:Core/Src/lis3dh_driver.c ****       return MEMS_SUCCESS;
 268              		.loc 1 142 12 is_stmt 0 view .LVU82
 269 00a6 0023     		movs	r3, #0
 270 00a8 2B70     		strb	r3, [r5]
 143:Core/Src/lis3dh_driver.c ****     }   
 271              		.loc 1 143 7 is_stmt 1 view .LVU83
 143:Core/Src/lis3dh_driver.c ****     }   
 272              		.loc 1 143 14 is_stmt 0 view .LVU84
 273 00aa 0123     		movs	r3, #1
 274 00ac CEE7     		b	.L8
 275              	.L30:
 148:Core/Src/lis3dh_driver.c ****       *val = MEMS_SET;
 276              		.loc 1 148 5 is_stmt 1 view .LVU85
 148:Core/Src/lis3dh_driver.c ****       *val = MEMS_SET;
 277              		.loc 1 148 14 is_stmt 0 view .LVU86
 278 00ae 9DF80730 		ldrb	r3, [sp, #7]	@ zero_extendqisi2
 279 00b2 03F00803 		and	r3, r3, #8
 280 00b6 8DF80730 		strb	r3, [sp, #7]
 148:Core/Src/lis3dh_driver.c ****       *val = MEMS_SET;
 281              		.loc 1 148 7 view .LVU87
ARM GAS  /tmp/ccQFuNLL.s 			page 10


 282 00ba 13B1     		cbz	r3, .L18
 149:Core/Src/lis3dh_driver.c ****       return MEMS_SUCCESS;
 283              		.loc 1 149 7 is_stmt 1 view .LVU88
 149:Core/Src/lis3dh_driver.c ****       return MEMS_SUCCESS;
 284              		.loc 1 149 12 is_stmt 0 view .LVU89
 285 00bc 0123     		movs	r3, #1
 286 00be 2B70     		strb	r3, [r5]
 150:Core/Src/lis3dh_driver.c ****     }
 287              		.loc 1 150 7 is_stmt 1 view .LVU90
 150:Core/Src/lis3dh_driver.c ****     }
 288              		.loc 1 150 14 is_stmt 0 view .LVU91
 289 00c0 C4E7     		b	.L8
 290              	.L18:
 153:Core/Src/lis3dh_driver.c ****       return MEMS_SUCCESS;
 291              		.loc 1 153 7 is_stmt 1 view .LVU92
 153:Core/Src/lis3dh_driver.c ****       return MEMS_SUCCESS;
 292              		.loc 1 153 12 is_stmt 0 view .LVU93
 293 00c2 0023     		movs	r3, #0
 294 00c4 2B70     		strb	r3, [r5]
 154:Core/Src/lis3dh_driver.c ****     }   
 295              		.loc 1 154 7 is_stmt 1 view .LVU94
 154:Core/Src/lis3dh_driver.c ****     }   
 296              		.loc 1 154 14 is_stmt 0 view .LVU95
 297 00c6 0123     		movs	r3, #1
 298 00c8 C0E7     		b	.L8
 299              	.L31:
 159:Core/Src/lis3dh_driver.c ****       *val = MEMS_SET;
 300              		.loc 1 159 5 is_stmt 1 view .LVU96
 159:Core/Src/lis3dh_driver.c ****       *val = MEMS_SET;
 301              		.loc 1 159 14 is_stmt 0 view .LVU97
 302 00ca 9DF80730 		ldrb	r3, [sp, #7]	@ zero_extendqisi2
 303 00ce 03F00403 		and	r3, r3, #4
 304 00d2 8DF80730 		strb	r3, [sp, #7]
 159:Core/Src/lis3dh_driver.c ****       *val = MEMS_SET;
 305              		.loc 1 159 7 view .LVU98
 306 00d6 13B1     		cbz	r3, .L20
 160:Core/Src/lis3dh_driver.c ****       return MEMS_SUCCESS;
 307              		.loc 1 160 7 is_stmt 1 view .LVU99
 160:Core/Src/lis3dh_driver.c ****       return MEMS_SUCCESS;
 308              		.loc 1 160 12 is_stmt 0 view .LVU100
 309 00d8 0123     		movs	r3, #1
 310 00da 2B70     		strb	r3, [r5]
 161:Core/Src/lis3dh_driver.c ****     }
 311              		.loc 1 161 7 is_stmt 1 view .LVU101
 161:Core/Src/lis3dh_driver.c ****     }
 312              		.loc 1 161 14 is_stmt 0 view .LVU102
 313 00dc B6E7     		b	.L8
 314              	.L20:
 164:Core/Src/lis3dh_driver.c ****       return MEMS_SUCCESS;
 315              		.loc 1 164 7 is_stmt 1 view .LVU103
 164:Core/Src/lis3dh_driver.c ****       return MEMS_SUCCESS;
 316              		.loc 1 164 12 is_stmt 0 view .LVU104
 317 00de 0023     		movs	r3, #0
 318 00e0 2B70     		strb	r3, [r5]
 165:Core/Src/lis3dh_driver.c ****     }   
 319              		.loc 1 165 7 is_stmt 1 view .LVU105
 165:Core/Src/lis3dh_driver.c ****     }   
ARM GAS  /tmp/ccQFuNLL.s 			page 11


 320              		.loc 1 165 14 is_stmt 0 view .LVU106
 321 00e2 0123     		movs	r3, #1
 322 00e4 B2E7     		b	.L8
 323              	.L32:
 170:Core/Src/lis3dh_driver.c ****       *val = MEMS_SET;
 324              		.loc 1 170 5 is_stmt 1 view .LVU107
 170:Core/Src/lis3dh_driver.c ****       *val = MEMS_SET;
 325              		.loc 1 170 14 is_stmt 0 view .LVU108
 326 00e6 9DF80730 		ldrb	r3, [sp, #7]	@ zero_extendqisi2
 327 00ea 03F00203 		and	r3, r3, #2
 328 00ee 8DF80730 		strb	r3, [sp, #7]
 170:Core/Src/lis3dh_driver.c ****       *val = MEMS_SET;
 329              		.loc 1 170 7 view .LVU109
 330 00f2 13B1     		cbz	r3, .L22
 171:Core/Src/lis3dh_driver.c ****       return MEMS_SUCCESS;
 331              		.loc 1 171 7 is_stmt 1 view .LVU110
 171:Core/Src/lis3dh_driver.c ****       return MEMS_SUCCESS;
 332              		.loc 1 171 12 is_stmt 0 view .LVU111
 333 00f4 0123     		movs	r3, #1
 334 00f6 2B70     		strb	r3, [r5]
 172:Core/Src/lis3dh_driver.c ****     }
 335              		.loc 1 172 7 is_stmt 1 view .LVU112
 172:Core/Src/lis3dh_driver.c ****     }
 336              		.loc 1 172 14 is_stmt 0 view .LVU113
 337 00f8 A8E7     		b	.L8
 338              	.L22:
 175:Core/Src/lis3dh_driver.c ****       return MEMS_SUCCESS;
 339              		.loc 1 175 7 is_stmt 1 view .LVU114
 175:Core/Src/lis3dh_driver.c ****       return MEMS_SUCCESS;
 340              		.loc 1 175 12 is_stmt 0 view .LVU115
 341 00fa 0023     		movs	r3, #0
 342 00fc 2B70     		strb	r3, [r5]
 176:Core/Src/lis3dh_driver.c ****     }  
 343              		.loc 1 176 7 is_stmt 1 view .LVU116
 176:Core/Src/lis3dh_driver.c ****     }  
 344              		.loc 1 176 14 is_stmt 0 view .LVU117
 345 00fe 0123     		movs	r3, #1
 346 0100 A4E7     		b	.L8
 347              	.L33:
 181:Core/Src/lis3dh_driver.c ****       *val = MEMS_SET;
 348              		.loc 1 181 5 is_stmt 1 view .LVU118
 181:Core/Src/lis3dh_driver.c ****       *val = MEMS_SET;
 349              		.loc 1 181 14 is_stmt 0 view .LVU119
 350 0102 9DF80730 		ldrb	r3, [sp, #7]	@ zero_extendqisi2
 351 0106 03F00103 		and	r3, r3, #1
 352 010a 8DF80730 		strb	r3, [sp, #7]
 181:Core/Src/lis3dh_driver.c ****       *val = MEMS_SET;
 353              		.loc 1 181 7 view .LVU120
 354 010e 1BB1     		cbz	r3, .L23
 182:Core/Src/lis3dh_driver.c ****       return MEMS_SUCCESS;
 355              		.loc 1 182 7 is_stmt 1 view .LVU121
 182:Core/Src/lis3dh_driver.c ****       return MEMS_SUCCESS;
 356              		.loc 1 182 12 is_stmt 0 view .LVU122
 357 0110 0123     		movs	r3, #1
 358 0112 2B70     		strb	r3, [r5]
 183:Core/Src/lis3dh_driver.c ****     }
 359              		.loc 1 183 7 is_stmt 1 view .LVU123
ARM GAS  /tmp/ccQFuNLL.s 			page 12


 183:Core/Src/lis3dh_driver.c ****     }
 360              		.loc 1 183 14 is_stmt 0 view .LVU124
 361 0114 2346     		mov	r3, r4
 362 0116 99E7     		b	.L8
 363              	.L23:
 186:Core/Src/lis3dh_driver.c ****       return MEMS_SUCCESS;
 364              		.loc 1 186 7 is_stmt 1 view .LVU125
 186:Core/Src/lis3dh_driver.c ****       return MEMS_SUCCESS;
 365              		.loc 1 186 12 is_stmt 0 view .LVU126
 366 0118 0023     		movs	r3, #0
 367 011a 2B70     		strb	r3, [r5]
 187:Core/Src/lis3dh_driver.c ****     }  
 368              		.loc 1 187 7 is_stmt 1 view .LVU127
 187:Core/Src/lis3dh_driver.c ****     }  
 369              		.loc 1 187 14 is_stmt 0 view .LVU128
 370 011c 2346     		mov	r3, r4
 371 011e 95E7     		b	.L8
 372              		.cfi_endproc
 373              	.LFE2:
 375              		.section	.text.LIS3DH_SetODR,"ax",%progbits
 376              		.align	1
 377              		.global	LIS3DH_SetODR
 378              		.syntax unified
 379              		.thumb
 380              		.thumb_func
 382              	LIS3DH_SetODR:
 383              	.LVL11:
 384              	.LFB3:
 192:Core/Src/lis3dh_driver.c **** 
 193:Core/Src/lis3dh_driver.c **** 
 194:Core/Src/lis3dh_driver.c **** /*******************************************************************************
 195:Core/Src/lis3dh_driver.c **** * Function Name  : LIS3DH_SetODR
 196:Core/Src/lis3dh_driver.c **** * Description    : Sets LIS3DH Output Data Rate
 197:Core/Src/lis3dh_driver.c **** * Input          : Output Data Rate
 198:Core/Src/lis3dh_driver.c **** * Output         : None
 199:Core/Src/lis3dh_driver.c **** * Return         : Status [MEMS_ERROR, MEMS_SUCCESS]
 200:Core/Src/lis3dh_driver.c **** *******************************************************************************/
 201:Core/Src/lis3dh_driver.c **** status_t LIS3DH_SetODR(LIS3DH_ODR_t ov){
 385              		.loc 1 201 40 is_stmt 1 view -0
 386              		.cfi_startproc
 387              		@ args = 0, pretend = 0, frame = 8
 388              		@ frame_needed = 0, uses_anonymous_args = 0
 389              		.loc 1 201 40 is_stmt 0 view .LVU130
 390 0000 10B5     		push	{r4, lr}
 391              	.LCFI6:
 392              		.cfi_def_cfa_offset 8
 393              		.cfi_offset 4, -8
 394              		.cfi_offset 14, -4
 395 0002 82B0     		sub	sp, sp, #8
 396              	.LCFI7:
 397              		.cfi_def_cfa_offset 16
 398 0004 0446     		mov	r4, r0
 202:Core/Src/lis3dh_driver.c ****   u8_t value;
 399              		.loc 1 202 3 is_stmt 1 view .LVU131
 203:Core/Src/lis3dh_driver.c ****   
 204:Core/Src/lis3dh_driver.c ****   if( !LIS3DH_ReadReg(LIS3DH_CTRL_REG1, &value) )
 400              		.loc 1 204 3 view .LVU132
ARM GAS  /tmp/ccQFuNLL.s 			page 13


 401              		.loc 1 204 8 is_stmt 0 view .LVU133
 402 0006 0DF10701 		add	r1, sp, #7
 403 000a 2020     		movs	r0, #32
 404              	.LVL12:
 405              		.loc 1 204 8 view .LVU134
 406 000c FFF7FEFF 		bl	LIS3DH_ReadReg
 407              	.LVL13:
 408              		.loc 1 204 5 view .LVU135
 409 0010 08B9     		cbnz	r0, .L37
 410              	.L35:
 205:Core/Src/lis3dh_driver.c ****     return MEMS_ERROR;
 206:Core/Src/lis3dh_driver.c ****   
 207:Core/Src/lis3dh_driver.c ****   value &= 0x0f;
 208:Core/Src/lis3dh_driver.c ****   value |= ov<<LIS3DH_ODR_BIT;
 209:Core/Src/lis3dh_driver.c ****   
 210:Core/Src/lis3dh_driver.c ****   if( !LIS3DH_WriteReg(LIS3DH_CTRL_REG1, value) )
 211:Core/Src/lis3dh_driver.c ****     return MEMS_ERROR;
 212:Core/Src/lis3dh_driver.c ****   
 213:Core/Src/lis3dh_driver.c ****   return MEMS_SUCCESS;
 214:Core/Src/lis3dh_driver.c **** }
 411              		.loc 1 214 1 view .LVU136
 412 0012 02B0     		add	sp, sp, #8
 413              	.LCFI8:
 414              		.cfi_remember_state
 415              		.cfi_def_cfa_offset 8
 416              		@ sp needed
 417 0014 10BD     		pop	{r4, pc}
 418              	.L37:
 419              	.LCFI9:
 420              		.cfi_restore_state
 207:Core/Src/lis3dh_driver.c ****   value |= ov<<LIS3DH_ODR_BIT;
 421              		.loc 1 207 3 is_stmt 1 view .LVU137
 207:Core/Src/lis3dh_driver.c ****   value |= ov<<LIS3DH_ODR_BIT;
 422              		.loc 1 207 9 is_stmt 0 view .LVU138
 423 0016 9DF80710 		ldrb	r1, [sp, #7]	@ zero_extendqisi2
 424 001a 01F00F01 		and	r1, r1, #15
 425 001e 8DF80710 		strb	r1, [sp, #7]
 208:Core/Src/lis3dh_driver.c ****   
 426              		.loc 1 208 3 is_stmt 1 view .LVU139
 208:Core/Src/lis3dh_driver.c ****   
 427              		.loc 1 208 9 is_stmt 0 view .LVU140
 428 0022 41EA0411 		orr	r1, r1, r4, lsl #4
 429 0026 C9B2     		uxtb	r1, r1
 430 0028 8DF80710 		strb	r1, [sp, #7]
 210:Core/Src/lis3dh_driver.c ****     return MEMS_ERROR;
 431              		.loc 1 210 3 is_stmt 1 view .LVU141
 210:Core/Src/lis3dh_driver.c ****     return MEMS_ERROR;
 432              		.loc 1 210 8 is_stmt 0 view .LVU142
 433 002c 2020     		movs	r0, #32
 434 002e FFF7FEFF 		bl	LIS3DH_WriteReg
 435              	.LVL14:
 210:Core/Src/lis3dh_driver.c ****     return MEMS_ERROR;
 436              		.loc 1 210 5 view .LVU143
 437 0032 0028     		cmp	r0, #0
 438 0034 EDD0     		beq	.L35
 213:Core/Src/lis3dh_driver.c **** }
 439              		.loc 1 213 10 view .LVU144
ARM GAS  /tmp/ccQFuNLL.s 			page 14


 440 0036 0120     		movs	r0, #1
 441 0038 EBE7     		b	.L35
 442              		.cfi_endproc
 443              	.LFE3:
 445              		.section	.text.LIS3DH_SetTemperature,"ax",%progbits
 446              		.align	1
 447              		.global	LIS3DH_SetTemperature
 448              		.syntax unified
 449              		.thumb
 450              		.thumb_func
 452              	LIS3DH_SetTemperature:
 453              	.LVL15:
 454              	.LFB4:
 215:Core/Src/lis3dh_driver.c **** 
 216:Core/Src/lis3dh_driver.c **** 
 217:Core/Src/lis3dh_driver.c **** /*******************************************************************************
 218:Core/Src/lis3dh_driver.c **** * Function Name  : LIS3DH_SetTemperature
 219:Core/Src/lis3dh_driver.c **** * Description    : Sets LIS3DH Output Temperature
 220:Core/Src/lis3dh_driver.c **** * Input          : MEMS_ENABLE, MEMS_DISABLE
 221:Core/Src/lis3dh_driver.c **** * Output         : None
 222:Core/Src/lis3dh_driver.c **** * Note           : For Read Temperature by LIS3DH_OUT_AUX_3, LIS3DH_SetADCAux and LIS3DH_SetBDU 
 223:Core/Src/lis3dh_driver.c **** 				   functions must be ENABLE
 224:Core/Src/lis3dh_driver.c **** * Return         : Status [MEMS_ERROR, MEMS_SUCCESS]
 225:Core/Src/lis3dh_driver.c **** *******************************************************************************/
 226:Core/Src/lis3dh_driver.c **** status_t LIS3DH_SetTemperature(State_t state){
 455              		.loc 1 226 46 is_stmt 1 view -0
 456              		.cfi_startproc
 457              		@ args = 0, pretend = 0, frame = 8
 458              		@ frame_needed = 0, uses_anonymous_args = 0
 459              		.loc 1 226 46 is_stmt 0 view .LVU146
 460 0000 10B5     		push	{r4, lr}
 461              	.LCFI10:
 462              		.cfi_def_cfa_offset 8
 463              		.cfi_offset 4, -8
 464              		.cfi_offset 14, -4
 465 0002 82B0     		sub	sp, sp, #8
 466              	.LCFI11:
 467              		.cfi_def_cfa_offset 16
 468 0004 0446     		mov	r4, r0
 227:Core/Src/lis3dh_driver.c ****   u8_t value;
 469              		.loc 1 227 3 is_stmt 1 view .LVU147
 228:Core/Src/lis3dh_driver.c ****   
 229:Core/Src/lis3dh_driver.c ****   if( !LIS3DH_ReadReg(LIS3DH_TEMP_CFG_REG, &value) )
 470              		.loc 1 229 3 view .LVU148
 471              		.loc 1 229 8 is_stmt 0 view .LVU149
 472 0006 0DF10701 		add	r1, sp, #7
 473 000a 1F20     		movs	r0, #31
 474              	.LVL16:
 475              		.loc 1 229 8 view .LVU150
 476 000c FFF7FEFF 		bl	LIS3DH_ReadReg
 477              	.LVL17:
 478              		.loc 1 229 5 view .LVU151
 479 0010 08B9     		cbnz	r0, .L41
 480              	.L39:
 230:Core/Src/lis3dh_driver.c ****     return MEMS_ERROR;
 231:Core/Src/lis3dh_driver.c ****   
 232:Core/Src/lis3dh_driver.c ****   value &= 0xBF;
ARM GAS  /tmp/ccQFuNLL.s 			page 15


 233:Core/Src/lis3dh_driver.c ****   value |= state<<LIS3DH_TEMP_EN;
 234:Core/Src/lis3dh_driver.c ****   
 235:Core/Src/lis3dh_driver.c ****   if( !LIS3DH_WriteReg(LIS3DH_TEMP_CFG_REG, value) )
 236:Core/Src/lis3dh_driver.c ****     return MEMS_ERROR;
 237:Core/Src/lis3dh_driver.c ****   
 238:Core/Src/lis3dh_driver.c ****   return MEMS_SUCCESS;
 239:Core/Src/lis3dh_driver.c **** }
 481              		.loc 1 239 1 view .LVU152
 482 0012 02B0     		add	sp, sp, #8
 483              	.LCFI12:
 484              		.cfi_remember_state
 485              		.cfi_def_cfa_offset 8
 486              		@ sp needed
 487 0014 10BD     		pop	{r4, pc}
 488              	.L41:
 489              	.LCFI13:
 490              		.cfi_restore_state
 232:Core/Src/lis3dh_driver.c ****   value |= state<<LIS3DH_TEMP_EN;
 491              		.loc 1 232 3 is_stmt 1 view .LVU153
 232:Core/Src/lis3dh_driver.c ****   value |= state<<LIS3DH_TEMP_EN;
 492              		.loc 1 232 9 is_stmt 0 view .LVU154
 493 0016 9DF80710 		ldrb	r1, [sp, #7]	@ zero_extendqisi2
 494 001a 01F0BF01 		and	r1, r1, #191
 495 001e 8DF80710 		strb	r1, [sp, #7]
 233:Core/Src/lis3dh_driver.c ****   
 496              		.loc 1 233 3 is_stmt 1 view .LVU155
 233:Core/Src/lis3dh_driver.c ****   
 497              		.loc 1 233 9 is_stmt 0 view .LVU156
 498 0022 41EA8411 		orr	r1, r1, r4, lsl #6
 499 0026 C9B2     		uxtb	r1, r1
 500 0028 8DF80710 		strb	r1, [sp, #7]
 235:Core/Src/lis3dh_driver.c ****     return MEMS_ERROR;
 501              		.loc 1 235 3 is_stmt 1 view .LVU157
 235:Core/Src/lis3dh_driver.c ****     return MEMS_ERROR;
 502              		.loc 1 235 8 is_stmt 0 view .LVU158
 503 002c 1F20     		movs	r0, #31
 504 002e FFF7FEFF 		bl	LIS3DH_WriteReg
 505              	.LVL18:
 235:Core/Src/lis3dh_driver.c ****     return MEMS_ERROR;
 506              		.loc 1 235 5 view .LVU159
 507 0032 0028     		cmp	r0, #0
 508 0034 EDD0     		beq	.L39
 238:Core/Src/lis3dh_driver.c **** }
 509              		.loc 1 238 10 view .LVU160
 510 0036 0120     		movs	r0, #1
 511 0038 EBE7     		b	.L39
 512              		.cfi_endproc
 513              	.LFE4:
 515              		.section	.text.LIS3DH_SetADCAux,"ax",%progbits
 516              		.align	1
 517              		.global	LIS3DH_SetADCAux
 518              		.syntax unified
 519              		.thumb
 520              		.thumb_func
 522              	LIS3DH_SetADCAux:
 523              	.LVL19:
 524              	.LFB5:
ARM GAS  /tmp/ccQFuNLL.s 			page 16


 240:Core/Src/lis3dh_driver.c **** 
 241:Core/Src/lis3dh_driver.c **** 
 242:Core/Src/lis3dh_driver.c **** /*******************************************************************************
 243:Core/Src/lis3dh_driver.c **** * Function Name  : LIS3DH_SetADCAux
 244:Core/Src/lis3dh_driver.c **** * Description    : Sets LIS3DH Output ADC
 245:Core/Src/lis3dh_driver.c **** * Input          : MEMS_ENABLE, MEMS_DISABLE
 246:Core/Src/lis3dh_driver.c **** * Output         : None
 247:Core/Src/lis3dh_driver.c **** * Return         : Status [MEMS_ERROR, MEMS_SUCCESS]
 248:Core/Src/lis3dh_driver.c **** *******************************************************************************/
 249:Core/Src/lis3dh_driver.c **** status_t LIS3DH_SetADCAux(State_t state){
 525              		.loc 1 249 41 is_stmt 1 view -0
 526              		.cfi_startproc
 527              		@ args = 0, pretend = 0, frame = 8
 528              		@ frame_needed = 0, uses_anonymous_args = 0
 529              		.loc 1 249 41 is_stmt 0 view .LVU162
 530 0000 10B5     		push	{r4, lr}
 531              	.LCFI14:
 532              		.cfi_def_cfa_offset 8
 533              		.cfi_offset 4, -8
 534              		.cfi_offset 14, -4
 535 0002 82B0     		sub	sp, sp, #8
 536              	.LCFI15:
 537              		.cfi_def_cfa_offset 16
 538 0004 0446     		mov	r4, r0
 250:Core/Src/lis3dh_driver.c ****   u8_t value;
 539              		.loc 1 250 3 is_stmt 1 view .LVU163
 251:Core/Src/lis3dh_driver.c ****   
 252:Core/Src/lis3dh_driver.c ****   if( !LIS3DH_ReadReg(LIS3DH_TEMP_CFG_REG, &value) )
 540              		.loc 1 252 3 view .LVU164
 541              		.loc 1 252 8 is_stmt 0 view .LVU165
 542 0006 0DF10701 		add	r1, sp, #7
 543 000a 1F20     		movs	r0, #31
 544              	.LVL20:
 545              		.loc 1 252 8 view .LVU166
 546 000c FFF7FEFF 		bl	LIS3DH_ReadReg
 547              	.LVL21:
 548              		.loc 1 252 5 view .LVU167
 549 0010 08B9     		cbnz	r0, .L45
 550              	.L43:
 253:Core/Src/lis3dh_driver.c ****     return MEMS_ERROR;
 254:Core/Src/lis3dh_driver.c ****   
 255:Core/Src/lis3dh_driver.c ****   value &= 0x7F;
 256:Core/Src/lis3dh_driver.c ****   value |= state<<LIS3DH_ADC_PD;
 257:Core/Src/lis3dh_driver.c ****   
 258:Core/Src/lis3dh_driver.c ****   if( !LIS3DH_WriteReg(LIS3DH_TEMP_CFG_REG, value) )
 259:Core/Src/lis3dh_driver.c ****     return MEMS_ERROR;
 260:Core/Src/lis3dh_driver.c ****   
 261:Core/Src/lis3dh_driver.c ****   return MEMS_SUCCESS;
 262:Core/Src/lis3dh_driver.c **** }
 551              		.loc 1 262 1 view .LVU168
 552 0012 02B0     		add	sp, sp, #8
 553              	.LCFI16:
 554              		.cfi_remember_state
 555              		.cfi_def_cfa_offset 8
 556              		@ sp needed
 557 0014 10BD     		pop	{r4, pc}
 558              	.L45:
ARM GAS  /tmp/ccQFuNLL.s 			page 17


 559              	.LCFI17:
 560              		.cfi_restore_state
 255:Core/Src/lis3dh_driver.c ****   value |= state<<LIS3DH_ADC_PD;
 561              		.loc 1 255 3 is_stmt 1 view .LVU169
 255:Core/Src/lis3dh_driver.c ****   value |= state<<LIS3DH_ADC_PD;
 562              		.loc 1 255 9 is_stmt 0 view .LVU170
 563 0016 9DF80710 		ldrb	r1, [sp, #7]	@ zero_extendqisi2
 564 001a 01F07F01 		and	r1, r1, #127
 565 001e 8DF80710 		strb	r1, [sp, #7]
 256:Core/Src/lis3dh_driver.c ****   
 566              		.loc 1 256 3 is_stmt 1 view .LVU171
 256:Core/Src/lis3dh_driver.c ****   
 567              		.loc 1 256 9 is_stmt 0 view .LVU172
 568 0022 41EAC411 		orr	r1, r1, r4, lsl #7
 569 0026 C9B2     		uxtb	r1, r1
 570 0028 8DF80710 		strb	r1, [sp, #7]
 258:Core/Src/lis3dh_driver.c ****     return MEMS_ERROR;
 571              		.loc 1 258 3 is_stmt 1 view .LVU173
 258:Core/Src/lis3dh_driver.c ****     return MEMS_ERROR;
 572              		.loc 1 258 8 is_stmt 0 view .LVU174
 573 002c 1F20     		movs	r0, #31
 574 002e FFF7FEFF 		bl	LIS3DH_WriteReg
 575              	.LVL22:
 258:Core/Src/lis3dh_driver.c ****     return MEMS_ERROR;
 576              		.loc 1 258 5 view .LVU175
 577 0032 0028     		cmp	r0, #0
 578 0034 EDD0     		beq	.L43
 261:Core/Src/lis3dh_driver.c **** }
 579              		.loc 1 261 10 view .LVU176
 580 0036 0120     		movs	r0, #1
 581 0038 EBE7     		b	.L43
 582              		.cfi_endproc
 583              	.LFE5:
 585              		.section	.text.LIS3DH_GetAuxRaw,"ax",%progbits
 586              		.align	1
 587              		.global	LIS3DH_GetAuxRaw
 588              		.syntax unified
 589              		.thumb
 590              		.thumb_func
 592              	LIS3DH_GetAuxRaw:
 593              	.LVL23:
 594              	.LFB6:
 263:Core/Src/lis3dh_driver.c **** 
 264:Core/Src/lis3dh_driver.c **** 
 265:Core/Src/lis3dh_driver.c **** /*******************************************************************************
 266:Core/Src/lis3dh_driver.c **** * Function Name  : LIS3DH_GetAuxRaw
 267:Core/Src/lis3dh_driver.c **** * Description    : Read the Aux Values Output Registers
 268:Core/Src/lis3dh_driver.c **** * Input          : Buffer to empty
 269:Core/Src/lis3dh_driver.c **** * Output         : Aux Values Registers buffer
 270:Core/Src/lis3dh_driver.c **** * Return         : Status [MEMS_ERROR, MEMS_SUCCESS]
 271:Core/Src/lis3dh_driver.c **** *******************************************************************************/
 272:Core/Src/lis3dh_driver.c **** status_t LIS3DH_GetAuxRaw(LIS3DH_Aux123Raw_t* buff) {
 595              		.loc 1 272 53 is_stmt 1 view -0
 596              		.cfi_startproc
 597              		@ args = 0, pretend = 0, frame = 8
 598              		@ frame_needed = 0, uses_anonymous_args = 0
 599              		.loc 1 272 53 is_stmt 0 view .LVU178
ARM GAS  /tmp/ccQFuNLL.s 			page 18


 600 0000 10B5     		push	{r4, lr}
 601              	.LCFI18:
 602              		.cfi_def_cfa_offset 8
 603              		.cfi_offset 4, -8
 604              		.cfi_offset 14, -4
 605 0002 82B0     		sub	sp, sp, #8
 606              	.LCFI19:
 607              		.cfi_def_cfa_offset 16
 608 0004 0446     		mov	r4, r0
 273:Core/Src/lis3dh_driver.c ****   u8_t valueL;
 609              		.loc 1 273 3 is_stmt 1 view .LVU179
 274:Core/Src/lis3dh_driver.c ****   u8_t valueH;
 610              		.loc 1 274 3 view .LVU180
 275:Core/Src/lis3dh_driver.c ****   
 276:Core/Src/lis3dh_driver.c ****   if( !LIS3DH_ReadReg(LIS3DH_OUT_1_L, &valueL) )
 611              		.loc 1 276 3 view .LVU181
 612              		.loc 1 276 8 is_stmt 0 view .LVU182
 613 0006 0DF10701 		add	r1, sp, #7
 614 000a 0820     		movs	r0, #8
 615              	.LVL24:
 616              		.loc 1 276 8 view .LVU183
 617 000c FFF7FEFF 		bl	LIS3DH_ReadReg
 618              	.LVL25:
 619              		.loc 1 276 5 view .LVU184
 620 0010 0246     		mov	r2, r0
 621 0012 10B9     		cbnz	r0, .L49
 622              	.L47:
 277:Core/Src/lis3dh_driver.c ****     return MEMS_ERROR;
 278:Core/Src/lis3dh_driver.c ****   
 279:Core/Src/lis3dh_driver.c ****   if( !LIS3DH_ReadReg(LIS3DH_OUT_1_H, &valueH) )
 280:Core/Src/lis3dh_driver.c ****     return MEMS_ERROR;
 281:Core/Src/lis3dh_driver.c ****   
 282:Core/Src/lis3dh_driver.c ****   buff->AUX_1 = (u16_t)( (valueH << 8) | valueL )/16;
 283:Core/Src/lis3dh_driver.c ****   
 284:Core/Src/lis3dh_driver.c ****   if( !LIS3DH_ReadReg(LIS3DH_OUT_2_L, &valueL) )
 285:Core/Src/lis3dh_driver.c ****     return MEMS_ERROR;
 286:Core/Src/lis3dh_driver.c ****   
 287:Core/Src/lis3dh_driver.c ****   if( !LIS3DH_ReadReg(LIS3DH_OUT_2_H, &valueH) )
 288:Core/Src/lis3dh_driver.c ****     return MEMS_ERROR;
 289:Core/Src/lis3dh_driver.c ****   
 290:Core/Src/lis3dh_driver.c ****   buff->AUX_2 = (u16_t)( (valueH << 8) | valueL )/16;
 291:Core/Src/lis3dh_driver.c ****   
 292:Core/Src/lis3dh_driver.c ****   if( !LIS3DH_ReadReg(LIS3DH_OUT_3_L, &valueL) )
 293:Core/Src/lis3dh_driver.c ****     return MEMS_ERROR;
 294:Core/Src/lis3dh_driver.c ****   
 295:Core/Src/lis3dh_driver.c ****   if( !LIS3DH_ReadReg(LIS3DH_OUT_3_H, &valueH) )
 296:Core/Src/lis3dh_driver.c ****     return MEMS_ERROR;
 297:Core/Src/lis3dh_driver.c ****   
 298:Core/Src/lis3dh_driver.c ****   buff->AUX_3 = (u16_t)( (valueH << 8) | valueL )/16;
 299:Core/Src/lis3dh_driver.c ****   
 300:Core/Src/lis3dh_driver.c ****   return MEMS_SUCCESS;  
 301:Core/Src/lis3dh_driver.c **** }
 623              		.loc 1 301 1 view .LVU185
 624 0014 1046     		mov	r0, r2
 625 0016 02B0     		add	sp, sp, #8
 626              	.LCFI20:
 627              		.cfi_remember_state
ARM GAS  /tmp/ccQFuNLL.s 			page 19


 628              		.cfi_def_cfa_offset 8
 629              		@ sp needed
 630 0018 10BD     		pop	{r4, pc}
 631              	.LVL26:
 632              	.L49:
 633              	.LCFI21:
 634              		.cfi_restore_state
 279:Core/Src/lis3dh_driver.c ****     return MEMS_ERROR;
 635              		.loc 1 279 3 is_stmt 1 view .LVU186
 279:Core/Src/lis3dh_driver.c ****     return MEMS_ERROR;
 636              		.loc 1 279 8 is_stmt 0 view .LVU187
 637 001a 0DF10601 		add	r1, sp, #6
 638 001e 0920     		movs	r0, #9
 639 0020 FFF7FEFF 		bl	LIS3DH_ReadReg
 640              	.LVL27:
 279:Core/Src/lis3dh_driver.c ****     return MEMS_ERROR;
 641              		.loc 1 279 5 view .LVU188
 642 0024 0246     		mov	r2, r0
 643 0026 0028     		cmp	r0, #0
 644 0028 F4D0     		beq	.L47
 282:Core/Src/lis3dh_driver.c ****   
 645              		.loc 1 282 3 is_stmt 1 view .LVU189
 282:Core/Src/lis3dh_driver.c ****   
 646              		.loc 1 282 34 is_stmt 0 view .LVU190
 647 002a 9DF80620 		ldrb	r2, [sp, #6]	@ zero_extendqisi2
 282:Core/Src/lis3dh_driver.c ****   
 648              		.loc 1 282 40 view .LVU191
 649 002e 9DF80730 		ldrb	r3, [sp, #7]	@ zero_extendqisi2
 282:Core/Src/lis3dh_driver.c ****   
 650              		.loc 1 282 17 view .LVU192
 651 0032 43EA0223 		orr	r3, r3, r2, lsl #8
 282:Core/Src/lis3dh_driver.c ****   
 652              		.loc 1 282 15 view .LVU193
 653 0036 1B09     		lsrs	r3, r3, #4
 654 0038 2380     		strh	r3, [r4]	@ movhi
 284:Core/Src/lis3dh_driver.c ****     return MEMS_ERROR;
 655              		.loc 1 284 3 is_stmt 1 view .LVU194
 284:Core/Src/lis3dh_driver.c ****     return MEMS_ERROR;
 656              		.loc 1 284 8 is_stmt 0 view .LVU195
 657 003a 0DF10701 		add	r1, sp, #7
 658 003e 0A20     		movs	r0, #10
 659 0040 FFF7FEFF 		bl	LIS3DH_ReadReg
 660              	.LVL28:
 284:Core/Src/lis3dh_driver.c ****     return MEMS_ERROR;
 661              		.loc 1 284 5 view .LVU196
 662 0044 0246     		mov	r2, r0
 663 0046 0028     		cmp	r0, #0
 664 0048 E4D0     		beq	.L47
 287:Core/Src/lis3dh_driver.c ****     return MEMS_ERROR;
 665              		.loc 1 287 3 is_stmt 1 view .LVU197
 287:Core/Src/lis3dh_driver.c ****     return MEMS_ERROR;
 666              		.loc 1 287 8 is_stmt 0 view .LVU198
 667 004a 0DF10601 		add	r1, sp, #6
 668 004e 0B20     		movs	r0, #11
 669 0050 FFF7FEFF 		bl	LIS3DH_ReadReg
 670              	.LVL29:
 287:Core/Src/lis3dh_driver.c ****     return MEMS_ERROR;
ARM GAS  /tmp/ccQFuNLL.s 			page 20


 671              		.loc 1 287 5 view .LVU199
 672 0054 0246     		mov	r2, r0
 673 0056 0028     		cmp	r0, #0
 674 0058 DCD0     		beq	.L47
 290:Core/Src/lis3dh_driver.c ****   
 675              		.loc 1 290 3 is_stmt 1 view .LVU200
 290:Core/Src/lis3dh_driver.c ****   
 676              		.loc 1 290 34 is_stmt 0 view .LVU201
 677 005a 9DF80620 		ldrb	r2, [sp, #6]	@ zero_extendqisi2
 290:Core/Src/lis3dh_driver.c ****   
 678              		.loc 1 290 40 view .LVU202
 679 005e 9DF80730 		ldrb	r3, [sp, #7]	@ zero_extendqisi2
 290:Core/Src/lis3dh_driver.c ****   
 680              		.loc 1 290 17 view .LVU203
 681 0062 43EA0223 		orr	r3, r3, r2, lsl #8
 290:Core/Src/lis3dh_driver.c ****   
 682              		.loc 1 290 15 view .LVU204
 683 0066 1B09     		lsrs	r3, r3, #4
 684 0068 6380     		strh	r3, [r4, #2]	@ movhi
 292:Core/Src/lis3dh_driver.c ****     return MEMS_ERROR;
 685              		.loc 1 292 3 is_stmt 1 view .LVU205
 292:Core/Src/lis3dh_driver.c ****     return MEMS_ERROR;
 686              		.loc 1 292 8 is_stmt 0 view .LVU206
 687 006a 0DF10701 		add	r1, sp, #7
 688 006e 0C20     		movs	r0, #12
 689 0070 FFF7FEFF 		bl	LIS3DH_ReadReg
 690              	.LVL30:
 292:Core/Src/lis3dh_driver.c ****     return MEMS_ERROR;
 691              		.loc 1 292 5 view .LVU207
 692 0074 0246     		mov	r2, r0
 693 0076 0028     		cmp	r0, #0
 694 0078 CCD0     		beq	.L47
 295:Core/Src/lis3dh_driver.c ****     return MEMS_ERROR;
 695              		.loc 1 295 3 is_stmt 1 view .LVU208
 295:Core/Src/lis3dh_driver.c ****     return MEMS_ERROR;
 696              		.loc 1 295 8 is_stmt 0 view .LVU209
 697 007a 0DF10601 		add	r1, sp, #6
 698 007e 0D20     		movs	r0, #13
 699 0080 FFF7FEFF 		bl	LIS3DH_ReadReg
 700              	.LVL31:
 295:Core/Src/lis3dh_driver.c ****     return MEMS_ERROR;
 701              		.loc 1 295 5 view .LVU210
 702 0084 0246     		mov	r2, r0
 703 0086 0028     		cmp	r0, #0
 704 0088 C4D0     		beq	.L47
 298:Core/Src/lis3dh_driver.c ****   
 705              		.loc 1 298 3 is_stmt 1 view .LVU211
 298:Core/Src/lis3dh_driver.c ****   
 706              		.loc 1 298 34 is_stmt 0 view .LVU212
 707 008a 9DF80620 		ldrb	r2, [sp, #6]	@ zero_extendqisi2
 298:Core/Src/lis3dh_driver.c ****   
 708              		.loc 1 298 40 view .LVU213
 709 008e 9DF80730 		ldrb	r3, [sp, #7]	@ zero_extendqisi2
 298:Core/Src/lis3dh_driver.c ****   
 710              		.loc 1 298 17 view .LVU214
 711 0092 43EA0223 		orr	r3, r3, r2, lsl #8
 298:Core/Src/lis3dh_driver.c ****   
ARM GAS  /tmp/ccQFuNLL.s 			page 21


 712              		.loc 1 298 15 view .LVU215
 713 0096 1B09     		lsrs	r3, r3, #4
 714 0098 A380     		strh	r3, [r4, #4]	@ movhi
 300:Core/Src/lis3dh_driver.c **** }
 715              		.loc 1 300 3 is_stmt 1 view .LVU216
 300:Core/Src/lis3dh_driver.c **** }
 716              		.loc 1 300 10 is_stmt 0 view .LVU217
 717 009a 0122     		movs	r2, #1
 718 009c BAE7     		b	.L47
 719              		.cfi_endproc
 720              	.LFE6:
 722              		.section	.text.LIS3DH_GetTempRaw,"ax",%progbits
 723              		.align	1
 724              		.global	LIS3DH_GetTempRaw
 725              		.syntax unified
 726              		.thumb
 727              		.thumb_func
 729              	LIS3DH_GetTempRaw:
 730              	.LVL32:
 731              	.LFB7:
 302:Core/Src/lis3dh_driver.c **** 
 303:Core/Src/lis3dh_driver.c **** 
 304:Core/Src/lis3dh_driver.c **** /*******************************************************************************
 305:Core/Src/lis3dh_driver.c **** * Function Name  : LIS3DH_GetTempRaw
 306:Core/Src/lis3dh_driver.c **** * Description    : Read the Temperature Values by AUX Output Registers OUT_3_H
 307:Core/Src/lis3dh_driver.c **** * Input          : Buffer to empty
 308:Core/Src/lis3dh_driver.c **** * Output         : Temperature Values Registers buffer
 309:Core/Src/lis3dh_driver.c **** * Return         : Status [MEMS_ERROR, MEMS_SUCCESS]
 310:Core/Src/lis3dh_driver.c **** *******************************************************************************/
 311:Core/Src/lis3dh_driver.c **** status_t LIS3DH_GetTempRaw(i8_t* buff) {
 732              		.loc 1 311 40 is_stmt 1 view -0
 733              		.cfi_startproc
 734              		@ args = 0, pretend = 0, frame = 8
 735              		@ frame_needed = 0, uses_anonymous_args = 0
 736              		.loc 1 311 40 is_stmt 0 view .LVU219
 737 0000 10B5     		push	{r4, lr}
 738              	.LCFI22:
 739              		.cfi_def_cfa_offset 8
 740              		.cfi_offset 4, -8
 741              		.cfi_offset 14, -4
 742 0002 82B0     		sub	sp, sp, #8
 743              	.LCFI23:
 744              		.cfi_def_cfa_offset 16
 745 0004 0446     		mov	r4, r0
 312:Core/Src/lis3dh_driver.c ****   u8_t valueL;
 746              		.loc 1 312 3 is_stmt 1 view .LVU220
 313:Core/Src/lis3dh_driver.c ****   u8_t valueH;
 747              		.loc 1 313 3 view .LVU221
 314:Core/Src/lis3dh_driver.c ****   
 315:Core/Src/lis3dh_driver.c ****   if( !LIS3DH_ReadReg(LIS3DH_OUT_3_L, &valueL) )
 748              		.loc 1 315 3 view .LVU222
 749              		.loc 1 315 8 is_stmt 0 view .LVU223
 750 0006 0DF10701 		add	r1, sp, #7
 751 000a 0C20     		movs	r0, #12
 752              	.LVL33:
 753              		.loc 1 315 8 view .LVU224
 754 000c FFF7FEFF 		bl	LIS3DH_ReadReg
ARM GAS  /tmp/ccQFuNLL.s 			page 22


 755              	.LVL34:
 756              		.loc 1 315 5 view .LVU225
 757 0010 08B9     		cbnz	r0, .L53
 758              	.L51:
 316:Core/Src/lis3dh_driver.c ****     return MEMS_ERROR;
 317:Core/Src/lis3dh_driver.c ****   
 318:Core/Src/lis3dh_driver.c ****   if( !LIS3DH_ReadReg(LIS3DH_OUT_3_H, &valueH) )
 319:Core/Src/lis3dh_driver.c ****     return MEMS_ERROR;
 320:Core/Src/lis3dh_driver.c ****   
 321:Core/Src/lis3dh_driver.c ****   *buff = (i8_t)( valueH );
 322:Core/Src/lis3dh_driver.c ****   
 323:Core/Src/lis3dh_driver.c ****   return MEMS_SUCCESS;  
 324:Core/Src/lis3dh_driver.c **** }
 759              		.loc 1 324 1 view .LVU226
 760 0012 02B0     		add	sp, sp, #8
 761              	.LCFI24:
 762              		.cfi_remember_state
 763              		.cfi_def_cfa_offset 8
 764              		@ sp needed
 765 0014 10BD     		pop	{r4, pc}
 766              	.LVL35:
 767              	.L53:
 768              	.LCFI25:
 769              		.cfi_restore_state
 318:Core/Src/lis3dh_driver.c ****     return MEMS_ERROR;
 770              		.loc 1 318 3 is_stmt 1 view .LVU227
 318:Core/Src/lis3dh_driver.c ****     return MEMS_ERROR;
 771              		.loc 1 318 8 is_stmt 0 view .LVU228
 772 0016 0DF10601 		add	r1, sp, #6
 773 001a 0D20     		movs	r0, #13
 774 001c FFF7FEFF 		bl	LIS3DH_ReadReg
 775              	.LVL36:
 318:Core/Src/lis3dh_driver.c ****     return MEMS_ERROR;
 776              		.loc 1 318 5 view .LVU229
 777 0020 0028     		cmp	r0, #0
 778 0022 F6D0     		beq	.L51
 321:Core/Src/lis3dh_driver.c ****   
 779              		.loc 1 321 3 is_stmt 1 view .LVU230
 321:Core/Src/lis3dh_driver.c ****   
 780              		.loc 1 321 11 is_stmt 0 view .LVU231
 781 0024 9DF90630 		ldrsb	r3, [sp, #6]
 321:Core/Src/lis3dh_driver.c ****   
 782              		.loc 1 321 9 view .LVU232
 783 0028 2370     		strb	r3, [r4]
 323:Core/Src/lis3dh_driver.c **** }
 784              		.loc 1 323 3 is_stmt 1 view .LVU233
 323:Core/Src/lis3dh_driver.c **** }
 785              		.loc 1 323 10 is_stmt 0 view .LVU234
 786 002a 0120     		movs	r0, #1
 787 002c F1E7     		b	.L51
 788              		.cfi_endproc
 789              	.LFE7:
 791              		.section	.text.LIS3DH_SetMode,"ax",%progbits
 792              		.align	1
 793              		.global	LIS3DH_SetMode
 794              		.syntax unified
 795              		.thumb
ARM GAS  /tmp/ccQFuNLL.s 			page 23


 796              		.thumb_func
 798              	LIS3DH_SetMode:
 799              	.LVL37:
 800              	.LFB8:
 325:Core/Src/lis3dh_driver.c **** 
 326:Core/Src/lis3dh_driver.c **** 
 327:Core/Src/lis3dh_driver.c **** /*******************************************************************************
 328:Core/Src/lis3dh_driver.c **** * Function Name  : LIS3DH_SetMode
 329:Core/Src/lis3dh_driver.c **** * Description    : Sets LIS3DH Operating Mode
 330:Core/Src/lis3dh_driver.c **** * Input          : Modality (LIS3DH_NORMAL, LIS3DH_LOW_POWER, LIS3DH_POWER_DOWN)
 331:Core/Src/lis3dh_driver.c **** * Output         : None
 332:Core/Src/lis3dh_driver.c **** * Return         : Status [MEMS_ERROR, MEMS_SUCCESS]
 333:Core/Src/lis3dh_driver.c **** *******************************************************************************/
 334:Core/Src/lis3dh_driver.c **** status_t LIS3DH_SetMode(LIS3DH_Mode_t md) {
 801              		.loc 1 334 43 is_stmt 1 view -0
 802              		.cfi_startproc
 803              		@ args = 0, pretend = 0, frame = 8
 804              		@ frame_needed = 0, uses_anonymous_args = 0
 805              		.loc 1 334 43 is_stmt 0 view .LVU236
 806 0000 10B5     		push	{r4, lr}
 807              	.LCFI26:
 808              		.cfi_def_cfa_offset 8
 809              		.cfi_offset 4, -8
 810              		.cfi_offset 14, -4
 811 0002 82B0     		sub	sp, sp, #8
 812              	.LCFI27:
 813              		.cfi_def_cfa_offset 16
 814 0004 0446     		mov	r4, r0
 335:Core/Src/lis3dh_driver.c ****   u8_t value;
 815              		.loc 1 335 3 is_stmt 1 view .LVU237
 336:Core/Src/lis3dh_driver.c ****   u8_t value2;
 816              		.loc 1 336 3 view .LVU238
 337:Core/Src/lis3dh_driver.c ****   static   u8_t ODR_old_value;
 817              		.loc 1 337 3 view .LVU239
 338:Core/Src/lis3dh_driver.c ****   
 339:Core/Src/lis3dh_driver.c ****   if( !LIS3DH_ReadReg(LIS3DH_CTRL_REG1, &value) )
 818              		.loc 1 339 3 view .LVU240
 819              		.loc 1 339 8 is_stmt 0 view .LVU241
 820 0006 0DF10701 		add	r1, sp, #7
 821 000a 2020     		movs	r0, #32
 822              	.LVL38:
 823              		.loc 1 339 8 view .LVU242
 824 000c FFF7FEFF 		bl	LIS3DH_ReadReg
 825              	.LVL39:
 826              		.loc 1 339 5 view .LVU243
 827 0010 0346     		mov	r3, r0
 828 0012 10B9     		cbnz	r0, .L62
 829              	.L55:
 340:Core/Src/lis3dh_driver.c ****     return MEMS_ERROR;
 341:Core/Src/lis3dh_driver.c ****   
 342:Core/Src/lis3dh_driver.c ****   if( !LIS3DH_ReadReg(LIS3DH_CTRL_REG4, &value2) )
 343:Core/Src/lis3dh_driver.c ****     return MEMS_ERROR;
 344:Core/Src/lis3dh_driver.c ****   
 345:Core/Src/lis3dh_driver.c ****   if((value & 0xF0)==0) 
 346:Core/Src/lis3dh_driver.c ****     value = value | (ODR_old_value & 0xF0); //if it comes from POWERDOWN  
 347:Core/Src/lis3dh_driver.c ****   
 348:Core/Src/lis3dh_driver.c ****   switch(md) {
ARM GAS  /tmp/ccQFuNLL.s 			page 24


 349:Core/Src/lis3dh_driver.c ****     
 350:Core/Src/lis3dh_driver.c ****   case LIS3DH_POWER_DOWN:
 351:Core/Src/lis3dh_driver.c ****     ODR_old_value = value;
 352:Core/Src/lis3dh_driver.c ****     value &= 0x0F;
 353:Core/Src/lis3dh_driver.c ****     break;
 354:Core/Src/lis3dh_driver.c ****     
 355:Core/Src/lis3dh_driver.c ****   case LIS3DH_NORMAL:
 356:Core/Src/lis3dh_driver.c ****     value &= 0xF7;
 357:Core/Src/lis3dh_driver.c ****     value |= (MEMS_RESET<<LIS3DH_LPEN);
 358:Core/Src/lis3dh_driver.c ****     value2 &= 0xF7;
 359:Core/Src/lis3dh_driver.c ****     value2 |= (MEMS_SET<<LIS3DH_HR);   //set HighResolution_BIT
 360:Core/Src/lis3dh_driver.c ****     break;
 361:Core/Src/lis3dh_driver.c ****     
 362:Core/Src/lis3dh_driver.c ****   case LIS3DH_LOW_POWER:		
 363:Core/Src/lis3dh_driver.c ****     value &= 0xF7;
 364:Core/Src/lis3dh_driver.c ****     value |=  (MEMS_SET<<LIS3DH_LPEN);
 365:Core/Src/lis3dh_driver.c ****     value2 &= 0xF7;
 366:Core/Src/lis3dh_driver.c ****     value2 |= (MEMS_RESET<<LIS3DH_HR); //reset HighResolution_BIT
 367:Core/Src/lis3dh_driver.c ****     break;
 368:Core/Src/lis3dh_driver.c ****     
 369:Core/Src/lis3dh_driver.c ****   default:
 370:Core/Src/lis3dh_driver.c ****     return MEMS_ERROR;
 371:Core/Src/lis3dh_driver.c ****   }
 372:Core/Src/lis3dh_driver.c ****   
 373:Core/Src/lis3dh_driver.c ****   if( !LIS3DH_WriteReg(LIS3DH_CTRL_REG1, value) )
 374:Core/Src/lis3dh_driver.c ****     return MEMS_ERROR;
 375:Core/Src/lis3dh_driver.c ****   
 376:Core/Src/lis3dh_driver.c ****   if( !LIS3DH_WriteReg(LIS3DH_CTRL_REG4, value2) )
 377:Core/Src/lis3dh_driver.c ****     return MEMS_ERROR;  
 378:Core/Src/lis3dh_driver.c ****   
 379:Core/Src/lis3dh_driver.c ****   return MEMS_SUCCESS;
 380:Core/Src/lis3dh_driver.c **** }
 830              		.loc 1 380 1 view .LVU244
 831 0014 1846     		mov	r0, r3
 832 0016 02B0     		add	sp, sp, #8
 833              	.LCFI28:
 834              		.cfi_remember_state
 835              		.cfi_def_cfa_offset 8
 836              		@ sp needed
 837 0018 10BD     		pop	{r4, pc}
 838              	.L62:
 839              	.LCFI29:
 840              		.cfi_restore_state
 342:Core/Src/lis3dh_driver.c ****     return MEMS_ERROR;
 841              		.loc 1 342 3 is_stmt 1 view .LVU245
 342:Core/Src/lis3dh_driver.c ****     return MEMS_ERROR;
 842              		.loc 1 342 8 is_stmt 0 view .LVU246
 843 001a 0DF10601 		add	r1, sp, #6
 844 001e 2320     		movs	r0, #35
 845 0020 FFF7FEFF 		bl	LIS3DH_ReadReg
 846              	.LVL40:
 342:Core/Src/lis3dh_driver.c ****     return MEMS_ERROR;
 847              		.loc 1 342 5 view .LVU247
 848 0024 0346     		mov	r3, r0
 849 0026 0028     		cmp	r0, #0
 850 0028 F4D0     		beq	.L55
 345:Core/Src/lis3dh_driver.c ****     value = value | (ODR_old_value & 0xF0); //if it comes from POWERDOWN  
ARM GAS  /tmp/ccQFuNLL.s 			page 25


 851              		.loc 1 345 3 is_stmt 1 view .LVU248
 345:Core/Src/lis3dh_driver.c ****     value = value | (ODR_old_value & 0xF0); //if it comes from POWERDOWN  
 852              		.loc 1 345 13 is_stmt 0 view .LVU249
 853 002a 9DF80720 		ldrb	r2, [sp, #7]	@ zero_extendqisi2
 345:Core/Src/lis3dh_driver.c ****     value = value | (ODR_old_value & 0xF0); //if it comes from POWERDOWN  
 854              		.loc 1 345 5 view .LVU250
 855 002e 12F0F00F 		tst	r2, #240
 856 0032 07D1     		bne	.L56
 346:Core/Src/lis3dh_driver.c ****   
 857              		.loc 1 346 5 is_stmt 1 view .LVU251
 346:Core/Src/lis3dh_driver.c ****   
 858              		.loc 1 346 36 is_stmt 0 view .LVU252
 859 0034 254B     		ldr	r3, .L64
 860 0036 1B78     		ldrb	r3, [r3]	@ zero_extendqisi2
 861 0038 23F00F03 		bic	r3, r3, #15
 862 003c 5BB2     		sxtb	r3, r3
 346:Core/Src/lis3dh_driver.c ****   
 863              		.loc 1 346 19 view .LVU253
 864 003e 1343     		orrs	r3, r3, r2
 346:Core/Src/lis3dh_driver.c ****   
 865              		.loc 1 346 11 view .LVU254
 866 0040 8DF80730 		strb	r3, [sp, #7]
 867              	.L56:
 348:Core/Src/lis3dh_driver.c ****     
 868              		.loc 1 348 3 is_stmt 1 view .LVU255
 869 0044 012C     		cmp	r4, #1
 870 0046 2FD0     		beq	.L57
 871 0048 022C     		cmp	r4, #2
 872 004a 1CD0     		beq	.L58
 873 004c 0CB1     		cbz	r4, .L63
 874 004e 0023     		movs	r3, #0
 875 0050 E0E7     		b	.L55
 876              	.L63:
 351:Core/Src/lis3dh_driver.c ****     value &= 0x0F;
 877              		.loc 1 351 5 view .LVU256
 351:Core/Src/lis3dh_driver.c ****     value &= 0x0F;
 878              		.loc 1 351 19 is_stmt 0 view .LVU257
 879 0052 9DF80730 		ldrb	r3, [sp, #7]	@ zero_extendqisi2
 880 0056 1D4A     		ldr	r2, .L64
 881 0058 1370     		strb	r3, [r2]
 352:Core/Src/lis3dh_driver.c ****     break;
 882              		.loc 1 352 5 is_stmt 1 view .LVU258
 352:Core/Src/lis3dh_driver.c ****     break;
 883              		.loc 1 352 11 is_stmt 0 view .LVU259
 884 005a 03F00F03 		and	r3, r3, #15
 885 005e 8DF80730 		strb	r3, [sp, #7]
 353:Core/Src/lis3dh_driver.c ****     
 886              		.loc 1 353 5 is_stmt 1 view .LVU260
 887              	.L59:
 373:Core/Src/lis3dh_driver.c ****     return MEMS_ERROR;
 888              		.loc 1 373 3 view .LVU261
 373:Core/Src/lis3dh_driver.c ****     return MEMS_ERROR;
 889              		.loc 1 373 8 is_stmt 0 view .LVU262
 890 0062 9DF80710 		ldrb	r1, [sp, #7]	@ zero_extendqisi2
 891 0066 2020     		movs	r0, #32
 892 0068 FFF7FEFF 		bl	LIS3DH_WriteReg
 893              	.LVL41:
ARM GAS  /tmp/ccQFuNLL.s 			page 26


 373:Core/Src/lis3dh_driver.c ****     return MEMS_ERROR;
 894              		.loc 1 373 5 view .LVU263
 895 006c 0346     		mov	r3, r0
 896 006e 0028     		cmp	r0, #0
 897 0070 D0D0     		beq	.L55
 376:Core/Src/lis3dh_driver.c ****     return MEMS_ERROR;  
 898              		.loc 1 376 3 is_stmt 1 view .LVU264
 376:Core/Src/lis3dh_driver.c ****     return MEMS_ERROR;  
 899              		.loc 1 376 8 is_stmt 0 view .LVU265
 900 0072 9DF80610 		ldrb	r1, [sp, #6]	@ zero_extendqisi2
 901 0076 2320     		movs	r0, #35
 902 0078 FFF7FEFF 		bl	LIS3DH_WriteReg
 903              	.LVL42:
 376:Core/Src/lis3dh_driver.c ****     return MEMS_ERROR;  
 904              		.loc 1 376 5 view .LVU266
 905 007c 0346     		mov	r3, r0
 906 007e 0028     		cmp	r0, #0
 907 0080 C8D0     		beq	.L55
 379:Core/Src/lis3dh_driver.c **** }
 908              		.loc 1 379 10 view .LVU267
 909 0082 0123     		movs	r3, #1
 910 0084 C6E7     		b	.L55
 911              	.L58:
 356:Core/Src/lis3dh_driver.c ****     value |= (MEMS_RESET<<LIS3DH_LPEN);
 912              		.loc 1 356 5 is_stmt 1 view .LVU268
 356:Core/Src/lis3dh_driver.c ****     value |= (MEMS_RESET<<LIS3DH_LPEN);
 913              		.loc 1 356 11 is_stmt 0 view .LVU269
 914 0086 9DF80730 		ldrb	r3, [sp, #7]	@ zero_extendqisi2
 915 008a 23F00803 		bic	r3, r3, #8
 916 008e 8DF80730 		strb	r3, [sp, #7]
 357:Core/Src/lis3dh_driver.c ****     value2 &= 0xF7;
 917              		.loc 1 357 5 is_stmt 1 view .LVU270
 358:Core/Src/lis3dh_driver.c ****     value2 |= (MEMS_SET<<LIS3DH_HR);   //set HighResolution_BIT
 918              		.loc 1 358 5 view .LVU271
 358:Core/Src/lis3dh_driver.c ****     value2 |= (MEMS_SET<<LIS3DH_HR);   //set HighResolution_BIT
 919              		.loc 1 358 12 is_stmt 0 view .LVU272
 920 0092 9DF80630 		ldrb	r3, [sp, #6]	@ zero_extendqisi2
 921 0096 03F0F703 		and	r3, r3, #247
 922 009a 8DF80630 		strb	r3, [sp, #6]
 359:Core/Src/lis3dh_driver.c ****     break;
 923              		.loc 1 359 5 is_stmt 1 view .LVU273
 359:Core/Src/lis3dh_driver.c ****     break;
 924              		.loc 1 359 12 is_stmt 0 view .LVU274
 925 009e 43F00803 		orr	r3, r3, #8
 926 00a2 8DF80630 		strb	r3, [sp, #6]
 360:Core/Src/lis3dh_driver.c ****     
 927              		.loc 1 360 5 is_stmt 1 view .LVU275
 928 00a6 DCE7     		b	.L59
 929              	.L57:
 363:Core/Src/lis3dh_driver.c ****     value |=  (MEMS_SET<<LIS3DH_LPEN);
 930              		.loc 1 363 5 view .LVU276
 363:Core/Src/lis3dh_driver.c ****     value |=  (MEMS_SET<<LIS3DH_LPEN);
 931              		.loc 1 363 11 is_stmt 0 view .LVU277
 932 00a8 9DF80730 		ldrb	r3, [sp, #7]	@ zero_extendqisi2
 933 00ac 03F0F703 		and	r3, r3, #247
 934 00b0 8DF80730 		strb	r3, [sp, #7]
 364:Core/Src/lis3dh_driver.c ****     value2 &= 0xF7;
ARM GAS  /tmp/ccQFuNLL.s 			page 27


 935              		.loc 1 364 5 is_stmt 1 view .LVU278
 364:Core/Src/lis3dh_driver.c ****     value2 &= 0xF7;
 936              		.loc 1 364 11 is_stmt 0 view .LVU279
 937 00b4 43F00803 		orr	r3, r3, #8
 938 00b8 8DF80730 		strb	r3, [sp, #7]
 365:Core/Src/lis3dh_driver.c ****     value2 |= (MEMS_RESET<<LIS3DH_HR); //reset HighResolution_BIT
 939              		.loc 1 365 5 is_stmt 1 view .LVU280
 365:Core/Src/lis3dh_driver.c ****     value2 |= (MEMS_RESET<<LIS3DH_HR); //reset HighResolution_BIT
 940              		.loc 1 365 12 is_stmt 0 view .LVU281
 941 00bc 9DF80630 		ldrb	r3, [sp, #6]	@ zero_extendqisi2
 942 00c0 23F00803 		bic	r3, r3, #8
 943 00c4 8DF80630 		strb	r3, [sp, #6]
 366:Core/Src/lis3dh_driver.c ****     break;
 944              		.loc 1 366 5 is_stmt 1 view .LVU282
 367:Core/Src/lis3dh_driver.c ****     
 945              		.loc 1 367 5 view .LVU283
 946 00c8 CBE7     		b	.L59
 947              	.L65:
 948 00ca 00BF     		.align	2
 949              	.L64:
 950 00cc 00000000 		.word	.LANCHOR0
 951              		.cfi_endproc
 952              	.LFE8:
 954              		.section	.text.LIS3DH_SetAxis,"ax",%progbits
 955              		.align	1
 956              		.global	LIS3DH_SetAxis
 957              		.syntax unified
 958              		.thumb
 959              		.thumb_func
 961              	LIS3DH_SetAxis:
 962              	.LVL43:
 963              	.LFB9:
 381:Core/Src/lis3dh_driver.c **** 
 382:Core/Src/lis3dh_driver.c **** 
 383:Core/Src/lis3dh_driver.c **** /*******************************************************************************
 384:Core/Src/lis3dh_driver.c **** * Function Name  : LIS3DH_SetAxis
 385:Core/Src/lis3dh_driver.c **** * Description    : Enable/Disable LIS3DH Axis
 386:Core/Src/lis3dh_driver.c **** * Input          : LIS3DH_X_ENABLE/DISABLE | LIS3DH_Y_ENABLE/DISABLE | LIS3DH_Z_ENABLE/DISABLE
 387:Core/Src/lis3dh_driver.c **** * Output         : None
 388:Core/Src/lis3dh_driver.c **** * Note           : You MUST use all input variable in the argument, as example
 389:Core/Src/lis3dh_driver.c **** * Return         : Status [MEMS_ERROR, MEMS_SUCCESS]
 390:Core/Src/lis3dh_driver.c **** *******************************************************************************/
 391:Core/Src/lis3dh_driver.c **** status_t LIS3DH_SetAxis(LIS3DH_Axis_t axis) {
 964              		.loc 1 391 45 view -0
 965              		.cfi_startproc
 966              		@ args = 0, pretend = 0, frame = 8
 967              		@ frame_needed = 0, uses_anonymous_args = 0
 968              		.loc 1 391 45 is_stmt 0 view .LVU285
 969 0000 10B5     		push	{r4, lr}
 970              	.LCFI30:
 971              		.cfi_def_cfa_offset 8
 972              		.cfi_offset 4, -8
 973              		.cfi_offset 14, -4
 974 0002 82B0     		sub	sp, sp, #8
 975              	.LCFI31:
 976              		.cfi_def_cfa_offset 16
 977 0004 0446     		mov	r4, r0
ARM GAS  /tmp/ccQFuNLL.s 			page 28


 392:Core/Src/lis3dh_driver.c ****   u8_t value;
 978              		.loc 1 392 3 is_stmt 1 view .LVU286
 393:Core/Src/lis3dh_driver.c ****   
 394:Core/Src/lis3dh_driver.c ****   if( !LIS3DH_ReadReg(LIS3DH_CTRL_REG1, &value) )
 979              		.loc 1 394 3 view .LVU287
 980              		.loc 1 394 8 is_stmt 0 view .LVU288
 981 0006 0DF10701 		add	r1, sp, #7
 982 000a 2020     		movs	r0, #32
 983              	.LVL44:
 984              		.loc 1 394 8 view .LVU289
 985 000c FFF7FEFF 		bl	LIS3DH_ReadReg
 986              	.LVL45:
 987              		.loc 1 394 5 view .LVU290
 988 0010 08B9     		cbnz	r0, .L69
 989              	.L67:
 395:Core/Src/lis3dh_driver.c ****     return MEMS_ERROR;
 396:Core/Src/lis3dh_driver.c ****   value &= 0xF8;
 397:Core/Src/lis3dh_driver.c ****   value |= (0x07 & axis);
 398:Core/Src/lis3dh_driver.c ****   
 399:Core/Src/lis3dh_driver.c ****   if( !LIS3DH_WriteReg(LIS3DH_CTRL_REG1, value) )
 400:Core/Src/lis3dh_driver.c ****     return MEMS_ERROR;   
 401:Core/Src/lis3dh_driver.c ****   
 402:Core/Src/lis3dh_driver.c ****   return MEMS_SUCCESS;
 403:Core/Src/lis3dh_driver.c **** }
 990              		.loc 1 403 1 view .LVU291
 991 0012 02B0     		add	sp, sp, #8
 992              	.LCFI32:
 993              		.cfi_remember_state
 994              		.cfi_def_cfa_offset 8
 995              		@ sp needed
 996 0014 10BD     		pop	{r4, pc}
 997              	.L69:
 998              	.LCFI33:
 999              		.cfi_restore_state
 396:Core/Src/lis3dh_driver.c ****   value |= (0x07 & axis);
 1000              		.loc 1 396 3 is_stmt 1 view .LVU292
 396:Core/Src/lis3dh_driver.c ****   value |= (0x07 & axis);
 1001              		.loc 1 396 9 is_stmt 0 view .LVU293
 1002 0016 9DF80710 		ldrb	r1, [sp, #7]	@ zero_extendqisi2
 1003 001a 01F0F801 		and	r1, r1, #248
 1004 001e 8DF80710 		strb	r1, [sp, #7]
 397:Core/Src/lis3dh_driver.c ****   
 1005              		.loc 1 397 3 is_stmt 1 view .LVU294
 397:Core/Src/lis3dh_driver.c ****   
 1006              		.loc 1 397 9 is_stmt 0 view .LVU295
 1007 0022 04F00700 		and	r0, r4, #7
 1008 0026 0143     		orrs	r1, r1, r0
 1009 0028 8DF80710 		strb	r1, [sp, #7]
 399:Core/Src/lis3dh_driver.c ****     return MEMS_ERROR;   
 1010              		.loc 1 399 3 is_stmt 1 view .LVU296
 399:Core/Src/lis3dh_driver.c ****     return MEMS_ERROR;   
 1011              		.loc 1 399 8 is_stmt 0 view .LVU297
 1012 002c 2020     		movs	r0, #32
 1013 002e FFF7FEFF 		bl	LIS3DH_WriteReg
 1014              	.LVL46:
 399:Core/Src/lis3dh_driver.c ****     return MEMS_ERROR;   
 1015              		.loc 1 399 5 view .LVU298
ARM GAS  /tmp/ccQFuNLL.s 			page 29


 1016 0032 0028     		cmp	r0, #0
 1017 0034 EDD0     		beq	.L67
 402:Core/Src/lis3dh_driver.c **** }
 1018              		.loc 1 402 10 view .LVU299
 1019 0036 0120     		movs	r0, #1
 1020 0038 EBE7     		b	.L67
 1021              		.cfi_endproc
 1022              	.LFE9:
 1024              		.section	.text.LIS3DH_SetFullScale,"ax",%progbits
 1025              		.align	1
 1026              		.global	LIS3DH_SetFullScale
 1027              		.syntax unified
 1028              		.thumb
 1029              		.thumb_func
 1031              	LIS3DH_SetFullScale:
 1032              	.LVL47:
 1033              	.LFB10:
 404:Core/Src/lis3dh_driver.c **** 
 405:Core/Src/lis3dh_driver.c **** 
 406:Core/Src/lis3dh_driver.c **** /*******************************************************************************
 407:Core/Src/lis3dh_driver.c **** * Function Name  : LIS3DH_SetFullScale
 408:Core/Src/lis3dh_driver.c **** * Description    : Sets the LIS3DH FullScale
 409:Core/Src/lis3dh_driver.c **** * Input          : LIS3DH_FULLSCALE_2/LIS3DH_FULLSCALE_4/LIS3DH_FULLSCALE_8/LIS3DH_FULLSCALE_16
 410:Core/Src/lis3dh_driver.c **** * Output         : None
 411:Core/Src/lis3dh_driver.c **** * Return         : Status [MEMS_ERROR, MEMS_SUCCESS]
 412:Core/Src/lis3dh_driver.c **** *******************************************************************************/
 413:Core/Src/lis3dh_driver.c **** status_t LIS3DH_SetFullScale(LIS3DH_Fullscale_t fs) {
 1034              		.loc 1 413 53 is_stmt 1 view -0
 1035              		.cfi_startproc
 1036              		@ args = 0, pretend = 0, frame = 8
 1037              		@ frame_needed = 0, uses_anonymous_args = 0
 1038              		.loc 1 413 53 is_stmt 0 view .LVU301
 1039 0000 10B5     		push	{r4, lr}
 1040              	.LCFI34:
 1041              		.cfi_def_cfa_offset 8
 1042              		.cfi_offset 4, -8
 1043              		.cfi_offset 14, -4
 1044 0002 82B0     		sub	sp, sp, #8
 1045              	.LCFI35:
 1046              		.cfi_def_cfa_offset 16
 1047 0004 0446     		mov	r4, r0
 414:Core/Src/lis3dh_driver.c ****   u8_t value;
 1048              		.loc 1 414 3 is_stmt 1 view .LVU302
 415:Core/Src/lis3dh_driver.c ****   
 416:Core/Src/lis3dh_driver.c ****   if( !LIS3DH_ReadReg(LIS3DH_CTRL_REG4, &value) )
 1049              		.loc 1 416 3 view .LVU303
 1050              		.loc 1 416 8 is_stmt 0 view .LVU304
 1051 0006 0DF10701 		add	r1, sp, #7
 1052 000a 2320     		movs	r0, #35
 1053              	.LVL48:
 1054              		.loc 1 416 8 view .LVU305
 1055 000c FFF7FEFF 		bl	LIS3DH_ReadReg
 1056              	.LVL49:
 1057              		.loc 1 416 5 view .LVU306
 1058 0010 08B9     		cbnz	r0, .L73
 1059              	.L71:
 417:Core/Src/lis3dh_driver.c ****     return MEMS_ERROR;
ARM GAS  /tmp/ccQFuNLL.s 			page 30


 418:Core/Src/lis3dh_driver.c ****   
 419:Core/Src/lis3dh_driver.c ****   value &= 0xCF;	
 420:Core/Src/lis3dh_driver.c ****   value |= (fs<<LIS3DH_FS);
 421:Core/Src/lis3dh_driver.c ****   
 422:Core/Src/lis3dh_driver.c ****   if( !LIS3DH_WriteReg(LIS3DH_CTRL_REG4, value) )
 423:Core/Src/lis3dh_driver.c ****     return MEMS_ERROR;
 424:Core/Src/lis3dh_driver.c ****   
 425:Core/Src/lis3dh_driver.c ****   return MEMS_SUCCESS;
 426:Core/Src/lis3dh_driver.c **** }
 1060              		.loc 1 426 1 view .LVU307
 1061 0012 02B0     		add	sp, sp, #8
 1062              	.LCFI36:
 1063              		.cfi_remember_state
 1064              		.cfi_def_cfa_offset 8
 1065              		@ sp needed
 1066 0014 10BD     		pop	{r4, pc}
 1067              	.L73:
 1068              	.LCFI37:
 1069              		.cfi_restore_state
 419:Core/Src/lis3dh_driver.c ****   value |= (fs<<LIS3DH_FS);
 1070              		.loc 1 419 3 is_stmt 1 view .LVU308
 419:Core/Src/lis3dh_driver.c ****   value |= (fs<<LIS3DH_FS);
 1071              		.loc 1 419 9 is_stmt 0 view .LVU309
 1072 0016 9DF80710 		ldrb	r1, [sp, #7]	@ zero_extendqisi2
 1073 001a 01F0CF01 		and	r1, r1, #207
 1074 001e 8DF80710 		strb	r1, [sp, #7]
 420:Core/Src/lis3dh_driver.c ****   
 1075              		.loc 1 420 3 is_stmt 1 view .LVU310
 420:Core/Src/lis3dh_driver.c ****   
 1076              		.loc 1 420 9 is_stmt 0 view .LVU311
 1077 0022 41EA0411 		orr	r1, r1, r4, lsl #4
 1078 0026 C9B2     		uxtb	r1, r1
 1079 0028 8DF80710 		strb	r1, [sp, #7]
 422:Core/Src/lis3dh_driver.c ****     return MEMS_ERROR;
 1080              		.loc 1 422 3 is_stmt 1 view .LVU312
 422:Core/Src/lis3dh_driver.c ****     return MEMS_ERROR;
 1081              		.loc 1 422 8 is_stmt 0 view .LVU313
 1082 002c 2320     		movs	r0, #35
 1083 002e FFF7FEFF 		bl	LIS3DH_WriteReg
 1084              	.LVL50:
 422:Core/Src/lis3dh_driver.c ****     return MEMS_ERROR;
 1085              		.loc 1 422 5 view .LVU314
 1086 0032 0028     		cmp	r0, #0
 1087 0034 EDD0     		beq	.L71
 425:Core/Src/lis3dh_driver.c **** }
 1088              		.loc 1 425 10 view .LVU315
 1089 0036 0120     		movs	r0, #1
 1090 0038 EBE7     		b	.L71
 1091              		.cfi_endproc
 1092              	.LFE10:
 1094              		.section	.text.LIS3DH_SetBDU,"ax",%progbits
 1095              		.align	1
 1096              		.global	LIS3DH_SetBDU
 1097              		.syntax unified
 1098              		.thumb
 1099              		.thumb_func
 1101              	LIS3DH_SetBDU:
ARM GAS  /tmp/ccQFuNLL.s 			page 31


 1102              	.LVL51:
 1103              	.LFB11:
 427:Core/Src/lis3dh_driver.c **** 
 428:Core/Src/lis3dh_driver.c **** 
 429:Core/Src/lis3dh_driver.c **** /*******************************************************************************
 430:Core/Src/lis3dh_driver.c **** * Function Name  : LIS3DH_SetBDU
 431:Core/Src/lis3dh_driver.c **** * Description    : Enable/Disable Block Data Update Functionality
 432:Core/Src/lis3dh_driver.c **** * Input          : ENABLE/DISABLE
 433:Core/Src/lis3dh_driver.c **** * Output         : None
 434:Core/Src/lis3dh_driver.c **** * Return         : Status [MEMS_ERROR, MEMS_SUCCESS]
 435:Core/Src/lis3dh_driver.c **** *******************************************************************************/
 436:Core/Src/lis3dh_driver.c **** status_t LIS3DH_SetBDU(State_t bdu) {
 1104              		.loc 1 436 37 is_stmt 1 view -0
 1105              		.cfi_startproc
 1106              		@ args = 0, pretend = 0, frame = 8
 1107              		@ frame_needed = 0, uses_anonymous_args = 0
 1108              		.loc 1 436 37 is_stmt 0 view .LVU317
 1109 0000 10B5     		push	{r4, lr}
 1110              	.LCFI38:
 1111              		.cfi_def_cfa_offset 8
 1112              		.cfi_offset 4, -8
 1113              		.cfi_offset 14, -4
 1114 0002 82B0     		sub	sp, sp, #8
 1115              	.LCFI39:
 1116              		.cfi_def_cfa_offset 16
 1117 0004 0446     		mov	r4, r0
 437:Core/Src/lis3dh_driver.c ****   u8_t value;
 1118              		.loc 1 437 3 is_stmt 1 view .LVU318
 438:Core/Src/lis3dh_driver.c ****   
 439:Core/Src/lis3dh_driver.c ****   if( !LIS3DH_ReadReg(LIS3DH_CTRL_REG4, &value) )
 1119              		.loc 1 439 3 view .LVU319
 1120              		.loc 1 439 8 is_stmt 0 view .LVU320
 1121 0006 0DF10701 		add	r1, sp, #7
 1122 000a 2320     		movs	r0, #35
 1123              	.LVL52:
 1124              		.loc 1 439 8 view .LVU321
 1125 000c FFF7FEFF 		bl	LIS3DH_ReadReg
 1126              	.LVL53:
 1127              		.loc 1 439 5 view .LVU322
 1128 0010 08B9     		cbnz	r0, .L77
 1129              	.L75:
 440:Core/Src/lis3dh_driver.c ****     return MEMS_ERROR;
 441:Core/Src/lis3dh_driver.c ****   
 442:Core/Src/lis3dh_driver.c ****   value &= 0x7F;
 443:Core/Src/lis3dh_driver.c ****   value |= (bdu<<LIS3DH_BDU);
 444:Core/Src/lis3dh_driver.c ****   
 445:Core/Src/lis3dh_driver.c ****   if( !LIS3DH_WriteReg(LIS3DH_CTRL_REG4, value) )
 446:Core/Src/lis3dh_driver.c ****     return MEMS_ERROR;
 447:Core/Src/lis3dh_driver.c ****   
 448:Core/Src/lis3dh_driver.c ****   return MEMS_SUCCESS;
 449:Core/Src/lis3dh_driver.c **** }
 1130              		.loc 1 449 1 view .LVU323
 1131 0012 02B0     		add	sp, sp, #8
 1132              	.LCFI40:
 1133              		.cfi_remember_state
 1134              		.cfi_def_cfa_offset 8
 1135              		@ sp needed
ARM GAS  /tmp/ccQFuNLL.s 			page 32


 1136 0014 10BD     		pop	{r4, pc}
 1137              	.L77:
 1138              	.LCFI41:
 1139              		.cfi_restore_state
 442:Core/Src/lis3dh_driver.c ****   value |= (bdu<<LIS3DH_BDU);
 1140              		.loc 1 442 3 is_stmt 1 view .LVU324
 442:Core/Src/lis3dh_driver.c ****   value |= (bdu<<LIS3DH_BDU);
 1141              		.loc 1 442 9 is_stmt 0 view .LVU325
 1142 0016 9DF80710 		ldrb	r1, [sp, #7]	@ zero_extendqisi2
 1143 001a 01F07F01 		and	r1, r1, #127
 1144 001e 8DF80710 		strb	r1, [sp, #7]
 443:Core/Src/lis3dh_driver.c ****   
 1145              		.loc 1 443 3 is_stmt 1 view .LVU326
 443:Core/Src/lis3dh_driver.c ****   
 1146              		.loc 1 443 9 is_stmt 0 view .LVU327
 1147 0022 41EAC411 		orr	r1, r1, r4, lsl #7
 1148 0026 C9B2     		uxtb	r1, r1
 1149 0028 8DF80710 		strb	r1, [sp, #7]
 445:Core/Src/lis3dh_driver.c ****     return MEMS_ERROR;
 1150              		.loc 1 445 3 is_stmt 1 view .LVU328
 445:Core/Src/lis3dh_driver.c ****     return MEMS_ERROR;
 1151              		.loc 1 445 8 is_stmt 0 view .LVU329
 1152 002c 2320     		movs	r0, #35
 1153 002e FFF7FEFF 		bl	LIS3DH_WriteReg
 1154              	.LVL54:
 445:Core/Src/lis3dh_driver.c ****     return MEMS_ERROR;
 1155              		.loc 1 445 5 view .LVU330
 1156 0032 0028     		cmp	r0, #0
 1157 0034 EDD0     		beq	.L75
 448:Core/Src/lis3dh_driver.c **** }
 1158              		.loc 1 448 10 view .LVU331
 1159 0036 0120     		movs	r0, #1
 1160 0038 EBE7     		b	.L75
 1161              		.cfi_endproc
 1162              	.LFE11:
 1164              		.section	.text.LIS3DH_SetBLE,"ax",%progbits
 1165              		.align	1
 1166              		.global	LIS3DH_SetBLE
 1167              		.syntax unified
 1168              		.thumb
 1169              		.thumb_func
 1171              	LIS3DH_SetBLE:
 1172              	.LVL55:
 1173              	.LFB12:
 450:Core/Src/lis3dh_driver.c **** 
 451:Core/Src/lis3dh_driver.c **** 
 452:Core/Src/lis3dh_driver.c **** /*******************************************************************************
 453:Core/Src/lis3dh_driver.c **** * Function Name  : LIS3DH_SetBLE
 454:Core/Src/lis3dh_driver.c **** * Description    : Set Endianess (MSB/LSB)
 455:Core/Src/lis3dh_driver.c **** * Input          : BLE_LSB / BLE_MSB
 456:Core/Src/lis3dh_driver.c **** * Output         : None
 457:Core/Src/lis3dh_driver.c **** * Return         : Status [MEMS_ERROR, MEMS_SUCCESS]
 458:Core/Src/lis3dh_driver.c **** *******************************************************************************/
 459:Core/Src/lis3dh_driver.c **** status_t LIS3DH_SetBLE(LIS3DH_Endianess_t ble) {
 1174              		.loc 1 459 48 is_stmt 1 view -0
 1175              		.cfi_startproc
 1176              		@ args = 0, pretend = 0, frame = 8
ARM GAS  /tmp/ccQFuNLL.s 			page 33


 1177              		@ frame_needed = 0, uses_anonymous_args = 0
 1178              		.loc 1 459 48 is_stmt 0 view .LVU333
 1179 0000 10B5     		push	{r4, lr}
 1180              	.LCFI42:
 1181              		.cfi_def_cfa_offset 8
 1182              		.cfi_offset 4, -8
 1183              		.cfi_offset 14, -4
 1184 0002 82B0     		sub	sp, sp, #8
 1185              	.LCFI43:
 1186              		.cfi_def_cfa_offset 16
 1187 0004 0446     		mov	r4, r0
 460:Core/Src/lis3dh_driver.c ****   u8_t value;
 1188              		.loc 1 460 3 is_stmt 1 view .LVU334
 461:Core/Src/lis3dh_driver.c ****   
 462:Core/Src/lis3dh_driver.c ****   if( !LIS3DH_ReadReg(LIS3DH_CTRL_REG4, &value) )
 1189              		.loc 1 462 3 view .LVU335
 1190              		.loc 1 462 8 is_stmt 0 view .LVU336
 1191 0006 0DF10701 		add	r1, sp, #7
 1192 000a 2320     		movs	r0, #35
 1193              	.LVL56:
 1194              		.loc 1 462 8 view .LVU337
 1195 000c FFF7FEFF 		bl	LIS3DH_ReadReg
 1196              	.LVL57:
 1197              		.loc 1 462 5 view .LVU338
 1198 0010 08B9     		cbnz	r0, .L81
 1199              	.L79:
 463:Core/Src/lis3dh_driver.c ****     return MEMS_ERROR;
 464:Core/Src/lis3dh_driver.c ****   
 465:Core/Src/lis3dh_driver.c ****   value &= 0xBF;	
 466:Core/Src/lis3dh_driver.c ****   value |= (ble<<LIS3DH_BLE);
 467:Core/Src/lis3dh_driver.c ****   
 468:Core/Src/lis3dh_driver.c ****   if( !LIS3DH_WriteReg(LIS3DH_CTRL_REG4, value) )
 469:Core/Src/lis3dh_driver.c ****     return MEMS_ERROR;
 470:Core/Src/lis3dh_driver.c ****   
 471:Core/Src/lis3dh_driver.c ****   return MEMS_SUCCESS;
 472:Core/Src/lis3dh_driver.c **** }
 1200              		.loc 1 472 1 view .LVU339
 1201 0012 02B0     		add	sp, sp, #8
 1202              	.LCFI44:
 1203              		.cfi_remember_state
 1204              		.cfi_def_cfa_offset 8
 1205              		@ sp needed
 1206 0014 10BD     		pop	{r4, pc}
 1207              	.L81:
 1208              	.LCFI45:
 1209              		.cfi_restore_state
 465:Core/Src/lis3dh_driver.c ****   value |= (ble<<LIS3DH_BLE);
 1210              		.loc 1 465 3 is_stmt 1 view .LVU340
 465:Core/Src/lis3dh_driver.c ****   value |= (ble<<LIS3DH_BLE);
 1211              		.loc 1 465 9 is_stmt 0 view .LVU341
 1212 0016 9DF80710 		ldrb	r1, [sp, #7]	@ zero_extendqisi2
 1213 001a 01F0BF01 		and	r1, r1, #191
 1214 001e 8DF80710 		strb	r1, [sp, #7]
 466:Core/Src/lis3dh_driver.c ****   
 1215              		.loc 1 466 3 is_stmt 1 view .LVU342
 466:Core/Src/lis3dh_driver.c ****   
 1216              		.loc 1 466 9 is_stmt 0 view .LVU343
ARM GAS  /tmp/ccQFuNLL.s 			page 34


 1217 0022 41EA8411 		orr	r1, r1, r4, lsl #6
 1218 0026 C9B2     		uxtb	r1, r1
 1219 0028 8DF80710 		strb	r1, [sp, #7]
 468:Core/Src/lis3dh_driver.c ****     return MEMS_ERROR;
 1220              		.loc 1 468 3 is_stmt 1 view .LVU344
 468:Core/Src/lis3dh_driver.c ****     return MEMS_ERROR;
 1221              		.loc 1 468 8 is_stmt 0 view .LVU345
 1222 002c 2320     		movs	r0, #35
 1223 002e FFF7FEFF 		bl	LIS3DH_WriteReg
 1224              	.LVL58:
 468:Core/Src/lis3dh_driver.c ****     return MEMS_ERROR;
 1225              		.loc 1 468 5 view .LVU346
 1226 0032 0028     		cmp	r0, #0
 1227 0034 EDD0     		beq	.L79
 471:Core/Src/lis3dh_driver.c **** }
 1228              		.loc 1 471 10 view .LVU347
 1229 0036 0120     		movs	r0, #1
 1230 0038 EBE7     		b	.L79
 1231              		.cfi_endproc
 1232              	.LFE12:
 1234              		.section	.text.LIS3DH_SetSelfTest,"ax",%progbits
 1235              		.align	1
 1236              		.global	LIS3DH_SetSelfTest
 1237              		.syntax unified
 1238              		.thumb
 1239              		.thumb_func
 1241              	LIS3DH_SetSelfTest:
 1242              	.LVL59:
 1243              	.LFB13:
 473:Core/Src/lis3dh_driver.c **** 
 474:Core/Src/lis3dh_driver.c **** 
 475:Core/Src/lis3dh_driver.c **** /*******************************************************************************
 476:Core/Src/lis3dh_driver.c **** * Function Name  : LIS3DH_SetSelfTest
 477:Core/Src/lis3dh_driver.c **** * Description    : Set Self Test Modality
 478:Core/Src/lis3dh_driver.c **** * Input          : LIS3DH_SELF_TEST_DISABLE/ST_0/ST_1
 479:Core/Src/lis3dh_driver.c **** * Output         : None
 480:Core/Src/lis3dh_driver.c **** * Return         : Status [MEMS_ERROR, MEMS_SUCCESS]
 481:Core/Src/lis3dh_driver.c **** *******************************************************************************/
 482:Core/Src/lis3dh_driver.c **** status_t LIS3DH_SetSelfTest(LIS3DH_SelfTest_t st) {
 1244              		.loc 1 482 51 is_stmt 1 view -0
 1245              		.cfi_startproc
 1246              		@ args = 0, pretend = 0, frame = 8
 1247              		@ frame_needed = 0, uses_anonymous_args = 0
 1248              		.loc 1 482 51 is_stmt 0 view .LVU349
 1249 0000 10B5     		push	{r4, lr}
 1250              	.LCFI46:
 1251              		.cfi_def_cfa_offset 8
 1252              		.cfi_offset 4, -8
 1253              		.cfi_offset 14, -4
 1254 0002 82B0     		sub	sp, sp, #8
 1255              	.LCFI47:
 1256              		.cfi_def_cfa_offset 16
 1257 0004 0446     		mov	r4, r0
 483:Core/Src/lis3dh_driver.c ****   u8_t value;
 1258              		.loc 1 483 3 is_stmt 1 view .LVU350
 484:Core/Src/lis3dh_driver.c ****   
 485:Core/Src/lis3dh_driver.c ****   if( !LIS3DH_ReadReg(LIS3DH_CTRL_REG4, &value) )
ARM GAS  /tmp/ccQFuNLL.s 			page 35


 1259              		.loc 1 485 3 view .LVU351
 1260              		.loc 1 485 8 is_stmt 0 view .LVU352
 1261 0006 0DF10701 		add	r1, sp, #7
 1262 000a 2320     		movs	r0, #35
 1263              	.LVL60:
 1264              		.loc 1 485 8 view .LVU353
 1265 000c FFF7FEFF 		bl	LIS3DH_ReadReg
 1266              	.LVL61:
 1267              		.loc 1 485 5 view .LVU354
 1268 0010 08B9     		cbnz	r0, .L85
 1269              	.L83:
 486:Core/Src/lis3dh_driver.c ****     return MEMS_ERROR;
 487:Core/Src/lis3dh_driver.c ****   
 488:Core/Src/lis3dh_driver.c ****   value &= 0xF9;
 489:Core/Src/lis3dh_driver.c ****   value |= (st<<LIS3DH_ST);
 490:Core/Src/lis3dh_driver.c ****   
 491:Core/Src/lis3dh_driver.c ****   if( !LIS3DH_WriteReg(LIS3DH_CTRL_REG4, value) )
 492:Core/Src/lis3dh_driver.c ****     return MEMS_ERROR;
 493:Core/Src/lis3dh_driver.c ****   
 494:Core/Src/lis3dh_driver.c ****   return MEMS_SUCCESS;
 495:Core/Src/lis3dh_driver.c **** }
 1270              		.loc 1 495 1 view .LVU355
 1271 0012 02B0     		add	sp, sp, #8
 1272              	.LCFI48:
 1273              		.cfi_remember_state
 1274              		.cfi_def_cfa_offset 8
 1275              		@ sp needed
 1276 0014 10BD     		pop	{r4, pc}
 1277              	.L85:
 1278              	.LCFI49:
 1279              		.cfi_restore_state
 488:Core/Src/lis3dh_driver.c ****   value |= (st<<LIS3DH_ST);
 1280              		.loc 1 488 3 is_stmt 1 view .LVU356
 488:Core/Src/lis3dh_driver.c ****   value |= (st<<LIS3DH_ST);
 1281              		.loc 1 488 9 is_stmt 0 view .LVU357
 1282 0016 9DF80710 		ldrb	r1, [sp, #7]	@ zero_extendqisi2
 1283 001a 01F0F901 		and	r1, r1, #249
 1284 001e 8DF80710 		strb	r1, [sp, #7]
 489:Core/Src/lis3dh_driver.c ****   
 1285              		.loc 1 489 3 is_stmt 1 view .LVU358
 489:Core/Src/lis3dh_driver.c ****   
 1286              		.loc 1 489 9 is_stmt 0 view .LVU359
 1287 0022 41EA4401 		orr	r1, r1, r4, lsl #1
 1288 0026 C9B2     		uxtb	r1, r1
 1289 0028 8DF80710 		strb	r1, [sp, #7]
 491:Core/Src/lis3dh_driver.c ****     return MEMS_ERROR;
 1290              		.loc 1 491 3 is_stmt 1 view .LVU360
 491:Core/Src/lis3dh_driver.c ****     return MEMS_ERROR;
 1291              		.loc 1 491 8 is_stmt 0 view .LVU361
 1292 002c 2320     		movs	r0, #35
 1293 002e FFF7FEFF 		bl	LIS3DH_WriteReg
 1294              	.LVL62:
 491:Core/Src/lis3dh_driver.c ****     return MEMS_ERROR;
 1295              		.loc 1 491 5 view .LVU362
 1296 0032 0028     		cmp	r0, #0
 1297 0034 EDD0     		beq	.L83
 494:Core/Src/lis3dh_driver.c **** }
ARM GAS  /tmp/ccQFuNLL.s 			page 36


 1298              		.loc 1 494 10 view .LVU363
 1299 0036 0120     		movs	r0, #1
 1300 0038 EBE7     		b	.L83
 1301              		.cfi_endproc
 1302              	.LFE13:
 1304              		.section	.text.LIS3DH_HPFClickEnable,"ax",%progbits
 1305              		.align	1
 1306              		.global	LIS3DH_HPFClickEnable
 1307              		.syntax unified
 1308              		.thumb
 1309              		.thumb_func
 1311              	LIS3DH_HPFClickEnable:
 1312              	.LVL63:
 1313              	.LFB14:
 496:Core/Src/lis3dh_driver.c **** 
 497:Core/Src/lis3dh_driver.c **** 
 498:Core/Src/lis3dh_driver.c **** /*******************************************************************************
 499:Core/Src/lis3dh_driver.c **** * Function Name  : LIS3DH_HPFClick
 500:Core/Src/lis3dh_driver.c **** * Description    : Enable/Disable High Pass Filter for click
 501:Core/Src/lis3dh_driver.c **** * Input          : MEMS_ENABLE/MEMS_DISABLE
 502:Core/Src/lis3dh_driver.c **** * Output         : None
 503:Core/Src/lis3dh_driver.c **** * Return         : Status [MEMS_ERROR, MEMS_SUCCESS]
 504:Core/Src/lis3dh_driver.c **** *******************************************************************************/
 505:Core/Src/lis3dh_driver.c **** status_t LIS3DH_HPFClickEnable(State_t hpfe) {
 1314              		.loc 1 505 46 is_stmt 1 view -0
 1315              		.cfi_startproc
 1316              		@ args = 0, pretend = 0, frame = 8
 1317              		@ frame_needed = 0, uses_anonymous_args = 0
 1318              		.loc 1 505 46 is_stmt 0 view .LVU365
 1319 0000 10B5     		push	{r4, lr}
 1320              	.LCFI50:
 1321              		.cfi_def_cfa_offset 8
 1322              		.cfi_offset 4, -8
 1323              		.cfi_offset 14, -4
 1324 0002 82B0     		sub	sp, sp, #8
 1325              	.LCFI51:
 1326              		.cfi_def_cfa_offset 16
 1327 0004 0446     		mov	r4, r0
 506:Core/Src/lis3dh_driver.c ****   u8_t value;
 1328              		.loc 1 506 3 is_stmt 1 view .LVU366
 507:Core/Src/lis3dh_driver.c ****   
 508:Core/Src/lis3dh_driver.c ****   if( !LIS3DH_ReadReg(LIS3DH_CTRL_REG2, &value) )
 1329              		.loc 1 508 3 view .LVU367
 1330              		.loc 1 508 8 is_stmt 0 view .LVU368
 1331 0006 0DF10701 		add	r1, sp, #7
 1332 000a 2120     		movs	r0, #33
 1333              	.LVL64:
 1334              		.loc 1 508 8 view .LVU369
 1335 000c FFF7FEFF 		bl	LIS3DH_ReadReg
 1336              	.LVL65:
 1337              		.loc 1 508 5 view .LVU370
 1338 0010 08B9     		cbnz	r0, .L89
 1339              	.L87:
 509:Core/Src/lis3dh_driver.c ****     return MEMS_ERROR;
 510:Core/Src/lis3dh_driver.c ****   
 511:Core/Src/lis3dh_driver.c ****   value &= 0xFB;
 512:Core/Src/lis3dh_driver.c ****   value |= (hpfe<<LIS3DH_HPCLICK);
ARM GAS  /tmp/ccQFuNLL.s 			page 37


 513:Core/Src/lis3dh_driver.c ****   
 514:Core/Src/lis3dh_driver.c ****   if( !LIS3DH_WriteReg(LIS3DH_CTRL_REG2, value) )
 515:Core/Src/lis3dh_driver.c ****     return MEMS_ERROR;
 516:Core/Src/lis3dh_driver.c ****   
 517:Core/Src/lis3dh_driver.c ****   return MEMS_SUCCESS;
 518:Core/Src/lis3dh_driver.c **** }
 1340              		.loc 1 518 1 view .LVU371
 1341 0012 02B0     		add	sp, sp, #8
 1342              	.LCFI52:
 1343              		.cfi_remember_state
 1344              		.cfi_def_cfa_offset 8
 1345              		@ sp needed
 1346 0014 10BD     		pop	{r4, pc}
 1347              	.L89:
 1348              	.LCFI53:
 1349              		.cfi_restore_state
 511:Core/Src/lis3dh_driver.c ****   value |= (hpfe<<LIS3DH_HPCLICK);
 1350              		.loc 1 511 3 is_stmt 1 view .LVU372
 511:Core/Src/lis3dh_driver.c ****   value |= (hpfe<<LIS3DH_HPCLICK);
 1351              		.loc 1 511 9 is_stmt 0 view .LVU373
 1352 0016 9DF80710 		ldrb	r1, [sp, #7]	@ zero_extendqisi2
 1353 001a 01F0FB01 		and	r1, r1, #251
 1354 001e 8DF80710 		strb	r1, [sp, #7]
 512:Core/Src/lis3dh_driver.c ****   
 1355              		.loc 1 512 3 is_stmt 1 view .LVU374
 512:Core/Src/lis3dh_driver.c ****   
 1356              		.loc 1 512 9 is_stmt 0 view .LVU375
 1357 0022 41EA8401 		orr	r1, r1, r4, lsl #2
 1358 0026 C9B2     		uxtb	r1, r1
 1359 0028 8DF80710 		strb	r1, [sp, #7]
 514:Core/Src/lis3dh_driver.c ****     return MEMS_ERROR;
 1360              		.loc 1 514 3 is_stmt 1 view .LVU376
 514:Core/Src/lis3dh_driver.c ****     return MEMS_ERROR;
 1361              		.loc 1 514 8 is_stmt 0 view .LVU377
 1362 002c 2120     		movs	r0, #33
 1363 002e FFF7FEFF 		bl	LIS3DH_WriteReg
 1364              	.LVL66:
 514:Core/Src/lis3dh_driver.c ****     return MEMS_ERROR;
 1365              		.loc 1 514 5 view .LVU378
 1366 0032 0028     		cmp	r0, #0
 1367 0034 EDD0     		beq	.L87
 517:Core/Src/lis3dh_driver.c **** }
 1368              		.loc 1 517 10 view .LVU379
 1369 0036 0120     		movs	r0, #1
 1370 0038 EBE7     		b	.L87
 1371              		.cfi_endproc
 1372              	.LFE14:
 1374              		.section	.text.LIS3DH_HPFAOI1Enable,"ax",%progbits
 1375              		.align	1
 1376              		.global	LIS3DH_HPFAOI1Enable
 1377              		.syntax unified
 1378              		.thumb
 1379              		.thumb_func
 1381              	LIS3DH_HPFAOI1Enable:
 1382              	.LVL67:
 1383              	.LFB15:
 519:Core/Src/lis3dh_driver.c **** 
ARM GAS  /tmp/ccQFuNLL.s 			page 38


 520:Core/Src/lis3dh_driver.c **** 
 521:Core/Src/lis3dh_driver.c **** /*******************************************************************************
 522:Core/Src/lis3dh_driver.c **** * Function Name  : LIS3DH_HPFAOI1
 523:Core/Src/lis3dh_driver.c **** * Description    : Enable/Disable High Pass Filter for AOI on INT_1
 524:Core/Src/lis3dh_driver.c **** * Input          : MEMS_ENABLE/MEMS_DISABLE
 525:Core/Src/lis3dh_driver.c **** * Output         : None
 526:Core/Src/lis3dh_driver.c **** * Return         : Status [MEMS_ERROR, MEMS_SUCCESS]
 527:Core/Src/lis3dh_driver.c **** *******************************************************************************/
 528:Core/Src/lis3dh_driver.c **** status_t LIS3DH_HPFAOI1Enable(State_t hpfe) {
 1384              		.loc 1 528 45 is_stmt 1 view -0
 1385              		.cfi_startproc
 1386              		@ args = 0, pretend = 0, frame = 8
 1387              		@ frame_needed = 0, uses_anonymous_args = 0
 1388              		.loc 1 528 45 is_stmt 0 view .LVU381
 1389 0000 10B5     		push	{r4, lr}
 1390              	.LCFI54:
 1391              		.cfi_def_cfa_offset 8
 1392              		.cfi_offset 4, -8
 1393              		.cfi_offset 14, -4
 1394 0002 82B0     		sub	sp, sp, #8
 1395              	.LCFI55:
 1396              		.cfi_def_cfa_offset 16
 1397 0004 0446     		mov	r4, r0
 529:Core/Src/lis3dh_driver.c ****   u8_t value;
 1398              		.loc 1 529 3 is_stmt 1 view .LVU382
 530:Core/Src/lis3dh_driver.c ****   
 531:Core/Src/lis3dh_driver.c ****   if( !LIS3DH_ReadReg(LIS3DH_CTRL_REG2, &value) )
 1399              		.loc 1 531 3 view .LVU383
 1400              		.loc 1 531 8 is_stmt 0 view .LVU384
 1401 0006 0DF10701 		add	r1, sp, #7
 1402 000a 2120     		movs	r0, #33
 1403              	.LVL68:
 1404              		.loc 1 531 8 view .LVU385
 1405 000c FFF7FEFF 		bl	LIS3DH_ReadReg
 1406              	.LVL69:
 1407              		.loc 1 531 5 view .LVU386
 1408 0010 08B9     		cbnz	r0, .L93
 1409              	.L91:
 532:Core/Src/lis3dh_driver.c ****     return MEMS_ERROR;
 533:Core/Src/lis3dh_driver.c ****   
 534:Core/Src/lis3dh_driver.c ****   value &= 0xFE;
 535:Core/Src/lis3dh_driver.c ****   value |= (hpfe<<LIS3DH_HPIS1);
 536:Core/Src/lis3dh_driver.c ****   
 537:Core/Src/lis3dh_driver.c ****   if( !LIS3DH_WriteReg(LIS3DH_CTRL_REG2, value) )
 538:Core/Src/lis3dh_driver.c ****     return MEMS_ERROR;
 539:Core/Src/lis3dh_driver.c ****   
 540:Core/Src/lis3dh_driver.c ****   return MEMS_SUCCESS;
 541:Core/Src/lis3dh_driver.c **** }
 1410              		.loc 1 541 1 view .LVU387
 1411 0012 02B0     		add	sp, sp, #8
 1412              	.LCFI56:
 1413              		.cfi_remember_state
 1414              		.cfi_def_cfa_offset 8
 1415              		@ sp needed
 1416 0014 10BD     		pop	{r4, pc}
 1417              	.L93:
 1418              	.LCFI57:
ARM GAS  /tmp/ccQFuNLL.s 			page 39


 1419              		.cfi_restore_state
 534:Core/Src/lis3dh_driver.c ****   value |= (hpfe<<LIS3DH_HPIS1);
 1420              		.loc 1 534 3 is_stmt 1 view .LVU388
 534:Core/Src/lis3dh_driver.c ****   value |= (hpfe<<LIS3DH_HPIS1);
 1421              		.loc 1 534 9 is_stmt 0 view .LVU389
 1422 0016 9DF80710 		ldrb	r1, [sp, #7]	@ zero_extendqisi2
 1423 001a 01F0FE01 		and	r1, r1, #254
 1424 001e 8DF80710 		strb	r1, [sp, #7]
 535:Core/Src/lis3dh_driver.c ****   
 1425              		.loc 1 535 3 is_stmt 1 view .LVU390
 535:Core/Src/lis3dh_driver.c ****   
 1426              		.loc 1 535 9 is_stmt 0 view .LVU391
 1427 0022 2143     		orrs	r1, r1, r4
 1428 0024 8DF80710 		strb	r1, [sp, #7]
 537:Core/Src/lis3dh_driver.c ****     return MEMS_ERROR;
 1429              		.loc 1 537 3 is_stmt 1 view .LVU392
 537:Core/Src/lis3dh_driver.c ****     return MEMS_ERROR;
 1430              		.loc 1 537 8 is_stmt 0 view .LVU393
 1431 0028 2120     		movs	r0, #33
 1432 002a FFF7FEFF 		bl	LIS3DH_WriteReg
 1433              	.LVL70:
 537:Core/Src/lis3dh_driver.c ****     return MEMS_ERROR;
 1434              		.loc 1 537 5 view .LVU394
 1435 002e 0028     		cmp	r0, #0
 1436 0030 EFD0     		beq	.L91
 540:Core/Src/lis3dh_driver.c **** }
 1437              		.loc 1 540 10 view .LVU395
 1438 0032 0120     		movs	r0, #1
 1439 0034 EDE7     		b	.L91
 1440              		.cfi_endproc
 1441              	.LFE15:
 1443              		.section	.text.LIS3DH_HPFAOI2Enable,"ax",%progbits
 1444              		.align	1
 1445              		.global	LIS3DH_HPFAOI2Enable
 1446              		.syntax unified
 1447              		.thumb
 1448              		.thumb_func
 1450              	LIS3DH_HPFAOI2Enable:
 1451              	.LVL71:
 1452              	.LFB16:
 542:Core/Src/lis3dh_driver.c **** 
 543:Core/Src/lis3dh_driver.c **** 
 544:Core/Src/lis3dh_driver.c **** /*******************************************************************************
 545:Core/Src/lis3dh_driver.c **** * Function Name  : LIS3DH_HPFAOI2
 546:Core/Src/lis3dh_driver.c **** * Description    : Enable/Disable High Pass Filter for AOI on INT_2
 547:Core/Src/lis3dh_driver.c **** * Input          : MEMS_ENABLE/MEMS_DISABLE
 548:Core/Src/lis3dh_driver.c **** * Output         : None
 549:Core/Src/lis3dh_driver.c **** * Return         : Status [MEMS_ERROR, MEMS_SUCCESS]
 550:Core/Src/lis3dh_driver.c **** *******************************************************************************/
 551:Core/Src/lis3dh_driver.c **** status_t LIS3DH_HPFAOI2Enable(State_t hpfe) {
 1453              		.loc 1 551 45 is_stmt 1 view -0
 1454              		.cfi_startproc
 1455              		@ args = 0, pretend = 0, frame = 8
 1456              		@ frame_needed = 0, uses_anonymous_args = 0
 1457              		.loc 1 551 45 is_stmt 0 view .LVU397
 1458 0000 10B5     		push	{r4, lr}
 1459              	.LCFI58:
ARM GAS  /tmp/ccQFuNLL.s 			page 40


 1460              		.cfi_def_cfa_offset 8
 1461              		.cfi_offset 4, -8
 1462              		.cfi_offset 14, -4
 1463 0002 82B0     		sub	sp, sp, #8
 1464              	.LCFI59:
 1465              		.cfi_def_cfa_offset 16
 1466 0004 0446     		mov	r4, r0
 552:Core/Src/lis3dh_driver.c ****   u8_t value;
 1467              		.loc 1 552 3 is_stmt 1 view .LVU398
 553:Core/Src/lis3dh_driver.c ****   
 554:Core/Src/lis3dh_driver.c ****   if( !LIS3DH_ReadReg(LIS3DH_CTRL_REG2, &value) )
 1468              		.loc 1 554 3 view .LVU399
 1469              		.loc 1 554 8 is_stmt 0 view .LVU400
 1470 0006 0DF10701 		add	r1, sp, #7
 1471 000a 2120     		movs	r0, #33
 1472              	.LVL72:
 1473              		.loc 1 554 8 view .LVU401
 1474 000c FFF7FEFF 		bl	LIS3DH_ReadReg
 1475              	.LVL73:
 1476              		.loc 1 554 5 view .LVU402
 1477 0010 08B9     		cbnz	r0, .L97
 1478              	.L95:
 555:Core/Src/lis3dh_driver.c ****     return MEMS_ERROR;
 556:Core/Src/lis3dh_driver.c ****   
 557:Core/Src/lis3dh_driver.c ****   value &= 0xFD;
 558:Core/Src/lis3dh_driver.c ****   value |= (hpfe<<LIS3DH_HPIS2);
 559:Core/Src/lis3dh_driver.c ****   
 560:Core/Src/lis3dh_driver.c ****   if( !LIS3DH_WriteReg(LIS3DH_CTRL_REG2, value) )
 561:Core/Src/lis3dh_driver.c ****     return MEMS_ERROR;
 562:Core/Src/lis3dh_driver.c ****   
 563:Core/Src/lis3dh_driver.c ****   return MEMS_SUCCESS;
 564:Core/Src/lis3dh_driver.c **** }
 1479              		.loc 1 564 1 view .LVU403
 1480 0012 02B0     		add	sp, sp, #8
 1481              	.LCFI60:
 1482              		.cfi_remember_state
 1483              		.cfi_def_cfa_offset 8
 1484              		@ sp needed
 1485 0014 10BD     		pop	{r4, pc}
 1486              	.L97:
 1487              	.LCFI61:
 1488              		.cfi_restore_state
 557:Core/Src/lis3dh_driver.c ****   value |= (hpfe<<LIS3DH_HPIS2);
 1489              		.loc 1 557 3 is_stmt 1 view .LVU404
 557:Core/Src/lis3dh_driver.c ****   value |= (hpfe<<LIS3DH_HPIS2);
 1490              		.loc 1 557 9 is_stmt 0 view .LVU405
 1491 0016 9DF80710 		ldrb	r1, [sp, #7]	@ zero_extendqisi2
 1492 001a 01F0FD01 		and	r1, r1, #253
 1493 001e 8DF80710 		strb	r1, [sp, #7]
 558:Core/Src/lis3dh_driver.c ****   
 1494              		.loc 1 558 3 is_stmt 1 view .LVU406
 558:Core/Src/lis3dh_driver.c ****   
 1495              		.loc 1 558 9 is_stmt 0 view .LVU407
 1496 0022 41EA4401 		orr	r1, r1, r4, lsl #1
 1497 0026 C9B2     		uxtb	r1, r1
 1498 0028 8DF80710 		strb	r1, [sp, #7]
 560:Core/Src/lis3dh_driver.c ****     return MEMS_ERROR;
ARM GAS  /tmp/ccQFuNLL.s 			page 41


 1499              		.loc 1 560 3 is_stmt 1 view .LVU408
 560:Core/Src/lis3dh_driver.c ****     return MEMS_ERROR;
 1500              		.loc 1 560 8 is_stmt 0 view .LVU409
 1501 002c 2120     		movs	r0, #33
 1502 002e FFF7FEFF 		bl	LIS3DH_WriteReg
 1503              	.LVL74:
 560:Core/Src/lis3dh_driver.c ****     return MEMS_ERROR;
 1504              		.loc 1 560 5 view .LVU410
 1505 0032 0028     		cmp	r0, #0
 1506 0034 EDD0     		beq	.L95
 563:Core/Src/lis3dh_driver.c **** }
 1507              		.loc 1 563 10 view .LVU411
 1508 0036 0120     		movs	r0, #1
 1509 0038 EBE7     		b	.L95
 1510              		.cfi_endproc
 1511              	.LFE16:
 1513              		.section	.text.LIS3DH_SetHPFMode,"ax",%progbits
 1514              		.align	1
 1515              		.global	LIS3DH_SetHPFMode
 1516              		.syntax unified
 1517              		.thumb
 1518              		.thumb_func
 1520              	LIS3DH_SetHPFMode:
 1521              	.LVL75:
 1522              	.LFB17:
 565:Core/Src/lis3dh_driver.c **** 
 566:Core/Src/lis3dh_driver.c **** 
 567:Core/Src/lis3dh_driver.c **** /*******************************************************************************
 568:Core/Src/lis3dh_driver.c **** * Function Name  : LIS3DH_SetHPFMode
 569:Core/Src/lis3dh_driver.c **** * Description    : Set High Pass Filter Modality
 570:Core/Src/lis3dh_driver.c **** * Input          : LIS3DH_HPM_NORMAL_MODE_RES/LIS3DH_HPM_REF_SIGNAL/
 571:Core/Src/lis3dh_driver.c **** 				   LIS3DH_HPM_NORMAL_MODE/LIS3DH_HPM_AUTORESET_INT
 572:Core/Src/lis3dh_driver.c **** * Output         : None
 573:Core/Src/lis3dh_driver.c **** * Return         : Status [MEMS_ERROR, MEMS_SUCCESS]
 574:Core/Src/lis3dh_driver.c **** *******************************************************************************/
 575:Core/Src/lis3dh_driver.c **** status_t LIS3DH_SetHPFMode(LIS3DH_HPFMode_t hpm) {
 1523              		.loc 1 575 50 is_stmt 1 view -0
 1524              		.cfi_startproc
 1525              		@ args = 0, pretend = 0, frame = 8
 1526              		@ frame_needed = 0, uses_anonymous_args = 0
 1527              		.loc 1 575 50 is_stmt 0 view .LVU413
 1528 0000 10B5     		push	{r4, lr}
 1529              	.LCFI62:
 1530              		.cfi_def_cfa_offset 8
 1531              		.cfi_offset 4, -8
 1532              		.cfi_offset 14, -4
 1533 0002 82B0     		sub	sp, sp, #8
 1534              	.LCFI63:
 1535              		.cfi_def_cfa_offset 16
 1536 0004 0446     		mov	r4, r0
 576:Core/Src/lis3dh_driver.c ****   u8_t value;
 1537              		.loc 1 576 3 is_stmt 1 view .LVU414
 577:Core/Src/lis3dh_driver.c ****   
 578:Core/Src/lis3dh_driver.c ****   if( !LIS3DH_ReadReg(LIS3DH_CTRL_REG2, &value) )
 1538              		.loc 1 578 3 view .LVU415
 1539              		.loc 1 578 8 is_stmt 0 view .LVU416
 1540 0006 0DF10701 		add	r1, sp, #7
ARM GAS  /tmp/ccQFuNLL.s 			page 42


 1541 000a 2120     		movs	r0, #33
 1542              	.LVL76:
 1543              		.loc 1 578 8 view .LVU417
 1544 000c FFF7FEFF 		bl	LIS3DH_ReadReg
 1545              	.LVL77:
 1546              		.loc 1 578 5 view .LVU418
 1547 0010 08B9     		cbnz	r0, .L101
 1548              	.L99:
 579:Core/Src/lis3dh_driver.c ****     return MEMS_ERROR;
 580:Core/Src/lis3dh_driver.c ****   
 581:Core/Src/lis3dh_driver.c ****   value &= 0x3F;
 582:Core/Src/lis3dh_driver.c ****   value |= (hpm<<LIS3DH_HPM);
 583:Core/Src/lis3dh_driver.c ****   
 584:Core/Src/lis3dh_driver.c ****   if( !LIS3DH_WriteReg(LIS3DH_CTRL_REG2, value) )
 585:Core/Src/lis3dh_driver.c ****     return MEMS_ERROR;
 586:Core/Src/lis3dh_driver.c ****   
 587:Core/Src/lis3dh_driver.c ****   return MEMS_SUCCESS;
 588:Core/Src/lis3dh_driver.c **** }
 1549              		.loc 1 588 1 view .LVU419
 1550 0012 02B0     		add	sp, sp, #8
 1551              	.LCFI64:
 1552              		.cfi_remember_state
 1553              		.cfi_def_cfa_offset 8
 1554              		@ sp needed
 1555 0014 10BD     		pop	{r4, pc}
 1556              	.L101:
 1557              	.LCFI65:
 1558              		.cfi_restore_state
 581:Core/Src/lis3dh_driver.c ****   value |= (hpm<<LIS3DH_HPM);
 1559              		.loc 1 581 3 is_stmt 1 view .LVU420
 581:Core/Src/lis3dh_driver.c ****   value |= (hpm<<LIS3DH_HPM);
 1560              		.loc 1 581 9 is_stmt 0 view .LVU421
 1561 0016 9DF80710 		ldrb	r1, [sp, #7]	@ zero_extendqisi2
 1562 001a 01F03F01 		and	r1, r1, #63
 1563 001e 8DF80710 		strb	r1, [sp, #7]
 582:Core/Src/lis3dh_driver.c ****   
 1564              		.loc 1 582 3 is_stmt 1 view .LVU422
 582:Core/Src/lis3dh_driver.c ****   
 1565              		.loc 1 582 9 is_stmt 0 view .LVU423
 1566 0022 41EA8411 		orr	r1, r1, r4, lsl #6
 1567 0026 C9B2     		uxtb	r1, r1
 1568 0028 8DF80710 		strb	r1, [sp, #7]
 584:Core/Src/lis3dh_driver.c ****     return MEMS_ERROR;
 1569              		.loc 1 584 3 is_stmt 1 view .LVU424
 584:Core/Src/lis3dh_driver.c ****     return MEMS_ERROR;
 1570              		.loc 1 584 8 is_stmt 0 view .LVU425
 1571 002c 2120     		movs	r0, #33
 1572 002e FFF7FEFF 		bl	LIS3DH_WriteReg
 1573              	.LVL78:
 584:Core/Src/lis3dh_driver.c ****     return MEMS_ERROR;
 1574              		.loc 1 584 5 view .LVU426
 1575 0032 0028     		cmp	r0, #0
 1576 0034 EDD0     		beq	.L99
 587:Core/Src/lis3dh_driver.c **** }
 1577              		.loc 1 587 10 view .LVU427
 1578 0036 0120     		movs	r0, #1
 1579 0038 EBE7     		b	.L99
ARM GAS  /tmp/ccQFuNLL.s 			page 43


 1580              		.cfi_endproc
 1581              	.LFE17:
 1583              		.section	.text.LIS3DH_SetHPFCutOFF,"ax",%progbits
 1584              		.align	1
 1585              		.global	LIS3DH_SetHPFCutOFF
 1586              		.syntax unified
 1587              		.thumb
 1588              		.thumb_func
 1590              	LIS3DH_SetHPFCutOFF:
 1591              	.LVL79:
 1592              	.LFB18:
 589:Core/Src/lis3dh_driver.c **** 
 590:Core/Src/lis3dh_driver.c **** 
 591:Core/Src/lis3dh_driver.c **** /*******************************************************************************
 592:Core/Src/lis3dh_driver.c **** * Function Name  : LIS3DH_SetHPFCutOFF
 593:Core/Src/lis3dh_driver.c **** * Description    : Set High Pass CUT OFF Freq
 594:Core/Src/lis3dh_driver.c **** * Input          : HPFCF [0,3]
 595:Core/Src/lis3dh_driver.c **** * Output         : None
 596:Core/Src/lis3dh_driver.c **** * Return         : Status [MEMS_ERROR, MEMS_SUCCESS]
 597:Core/Src/lis3dh_driver.c **** *******************************************************************************/
 598:Core/Src/lis3dh_driver.c **** status_t LIS3DH_SetHPFCutOFF(LIS3DH_HPFCutOffFreq_t hpf) {
 1593              		.loc 1 598 58 is_stmt 1 view -0
 1594              		.cfi_startproc
 1595              		@ args = 0, pretend = 0, frame = 8
 1596              		@ frame_needed = 0, uses_anonymous_args = 0
 599:Core/Src/lis3dh_driver.c ****   u8_t value;
 1597              		.loc 1 599 3 view .LVU429
 600:Core/Src/lis3dh_driver.c ****   
 601:Core/Src/lis3dh_driver.c ****   if (hpf > 3)
 1598              		.loc 1 601 3 view .LVU430
 1599              		.loc 1 601 6 is_stmt 0 view .LVU431
 1600 0000 0328     		cmp	r0, #3
 1601 0002 01D9     		bls	.L109
 602:Core/Src/lis3dh_driver.c ****     return MEMS_ERROR;
 1602              		.loc 1 602 12 view .LVU432
 1603 0004 0020     		movs	r0, #0
 1604              	.LVL80:
 603:Core/Src/lis3dh_driver.c ****   
 604:Core/Src/lis3dh_driver.c ****   if( !LIS3DH_ReadReg(LIS3DH_CTRL_REG2, &value) )
 605:Core/Src/lis3dh_driver.c ****     return MEMS_ERROR;
 606:Core/Src/lis3dh_driver.c ****   
 607:Core/Src/lis3dh_driver.c ****   value &= 0xCF;
 608:Core/Src/lis3dh_driver.c ****   value |= (hpf<<LIS3DH_HPCF);
 609:Core/Src/lis3dh_driver.c ****   
 610:Core/Src/lis3dh_driver.c ****   if( !LIS3DH_WriteReg(LIS3DH_CTRL_REG2, value) )
 611:Core/Src/lis3dh_driver.c ****     return MEMS_ERROR;
 612:Core/Src/lis3dh_driver.c ****   
 613:Core/Src/lis3dh_driver.c ****   return MEMS_SUCCESS;
 614:Core/Src/lis3dh_driver.c ****   
 615:Core/Src/lis3dh_driver.c **** }
 1605              		.loc 1 615 1 view .LVU433
 1606 0006 7047     		bx	lr
 1607              	.LVL81:
 1608              	.L109:
 598:Core/Src/lis3dh_driver.c ****   u8_t value;
 1609              		.loc 1 598 58 view .LVU434
 1610 0008 10B5     		push	{r4, lr}
ARM GAS  /tmp/ccQFuNLL.s 			page 44


 1611              	.LCFI66:
 1612              		.cfi_def_cfa_offset 8
 1613              		.cfi_offset 4, -8
 1614              		.cfi_offset 14, -4
 1615 000a 82B0     		sub	sp, sp, #8
 1616              	.LCFI67:
 1617              		.cfi_def_cfa_offset 16
 1618 000c 0446     		mov	r4, r0
 604:Core/Src/lis3dh_driver.c ****     return MEMS_ERROR;
 1619              		.loc 1 604 3 is_stmt 1 view .LVU435
 604:Core/Src/lis3dh_driver.c ****     return MEMS_ERROR;
 1620              		.loc 1 604 8 is_stmt 0 view .LVU436
 1621 000e 0DF10701 		add	r1, sp, #7
 1622 0012 2120     		movs	r0, #33
 1623              	.LVL82:
 604:Core/Src/lis3dh_driver.c ****     return MEMS_ERROR;
 1624              		.loc 1 604 8 view .LVU437
 1625 0014 FFF7FEFF 		bl	LIS3DH_ReadReg
 1626              	.LVL83:
 604:Core/Src/lis3dh_driver.c ****     return MEMS_ERROR;
 1627              		.loc 1 604 5 view .LVU438
 1628 0018 08B9     		cbnz	r0, .L110
 1629              	.L103:
 1630              		.loc 1 615 1 view .LVU439
 1631 001a 02B0     		add	sp, sp, #8
 1632              	.LCFI68:
 1633              		.cfi_remember_state
 1634              		.cfi_def_cfa_offset 8
 1635              		@ sp needed
 1636 001c 10BD     		pop	{r4, pc}
 1637              	.L110:
 1638              	.LCFI69:
 1639              		.cfi_restore_state
 607:Core/Src/lis3dh_driver.c ****   value |= (hpf<<LIS3DH_HPCF);
 1640              		.loc 1 607 3 is_stmt 1 view .LVU440
 607:Core/Src/lis3dh_driver.c ****   value |= (hpf<<LIS3DH_HPCF);
 1641              		.loc 1 607 9 is_stmt 0 view .LVU441
 1642 001e 9DF80710 		ldrb	r1, [sp, #7]	@ zero_extendqisi2
 1643 0022 01F0CF01 		and	r1, r1, #207
 1644 0026 8DF80710 		strb	r1, [sp, #7]
 608:Core/Src/lis3dh_driver.c ****   
 1645              		.loc 1 608 3 is_stmt 1 view .LVU442
 608:Core/Src/lis3dh_driver.c ****   
 1646              		.loc 1 608 9 is_stmt 0 view .LVU443
 1647 002a 41EA0411 		orr	r1, r1, r4, lsl #4
 1648 002e C9B2     		uxtb	r1, r1
 1649 0030 8DF80710 		strb	r1, [sp, #7]
 610:Core/Src/lis3dh_driver.c ****     return MEMS_ERROR;
 1650              		.loc 1 610 3 is_stmt 1 view .LVU444
 610:Core/Src/lis3dh_driver.c ****     return MEMS_ERROR;
 1651              		.loc 1 610 8 is_stmt 0 view .LVU445
 1652 0034 2120     		movs	r0, #33
 1653 0036 FFF7FEFF 		bl	LIS3DH_WriteReg
 1654              	.LVL84:
 610:Core/Src/lis3dh_driver.c ****     return MEMS_ERROR;
 1655              		.loc 1 610 5 view .LVU446
 1656 003a 0028     		cmp	r0, #0
ARM GAS  /tmp/ccQFuNLL.s 			page 45


 1657 003c EDD0     		beq	.L103
 613:Core/Src/lis3dh_driver.c ****   
 1658              		.loc 1 613 10 view .LVU447
 1659 003e 0120     		movs	r0, #1
 1660 0040 EBE7     		b	.L103
 1661              		.cfi_endproc
 1662              	.LFE18:
 1664              		.section	.text.LIS3DH_SetFilterDataSel,"ax",%progbits
 1665              		.align	1
 1666              		.global	LIS3DH_SetFilterDataSel
 1667              		.syntax unified
 1668              		.thumb
 1669              		.thumb_func
 1671              	LIS3DH_SetFilterDataSel:
 1672              	.LVL85:
 1673              	.LFB19:
 616:Core/Src/lis3dh_driver.c **** 
 617:Core/Src/lis3dh_driver.c **** 
 618:Core/Src/lis3dh_driver.c **** /*******************************************************************************
 619:Core/Src/lis3dh_driver.c **** * Function Name  : LIS3DH_SetFilterDataSel
 620:Core/Src/lis3dh_driver.c **** * Description    : Set Filter Data Selection bypassed or sent to FIFO OUT register
 621:Core/Src/lis3dh_driver.c **** * Input          : MEMS_SET, MEMS_RESET
 622:Core/Src/lis3dh_driver.c **** * Output         : None
 623:Core/Src/lis3dh_driver.c **** * Return         : Status [MEMS_ERROR, MEMS_SUCCESS]
 624:Core/Src/lis3dh_driver.c **** *******************************************************************************/
 625:Core/Src/lis3dh_driver.c **** status_t LIS3DH_SetFilterDataSel(State_t state) {
 1674              		.loc 1 625 49 is_stmt 1 view -0
 1675              		.cfi_startproc
 1676              		@ args = 0, pretend = 0, frame = 8
 1677              		@ frame_needed = 0, uses_anonymous_args = 0
 1678              		.loc 1 625 49 is_stmt 0 view .LVU449
 1679 0000 10B5     		push	{r4, lr}
 1680              	.LCFI70:
 1681              		.cfi_def_cfa_offset 8
 1682              		.cfi_offset 4, -8
 1683              		.cfi_offset 14, -4
 1684 0002 82B0     		sub	sp, sp, #8
 1685              	.LCFI71:
 1686              		.cfi_def_cfa_offset 16
 1687 0004 0446     		mov	r4, r0
 626:Core/Src/lis3dh_driver.c ****   u8_t value;
 1688              		.loc 1 626 3 is_stmt 1 view .LVU450
 627:Core/Src/lis3dh_driver.c ****   
 628:Core/Src/lis3dh_driver.c ****   if( !LIS3DH_ReadReg(LIS3DH_CTRL_REG2, &value) )
 1689              		.loc 1 628 3 view .LVU451
 1690              		.loc 1 628 8 is_stmt 0 view .LVU452
 1691 0006 0DF10701 		add	r1, sp, #7
 1692 000a 2120     		movs	r0, #33
 1693              	.LVL86:
 1694              		.loc 1 628 8 view .LVU453
 1695 000c FFF7FEFF 		bl	LIS3DH_ReadReg
 1696              	.LVL87:
 1697              		.loc 1 628 5 view .LVU454
 1698 0010 08B9     		cbnz	r0, .L114
 1699              	.L112:
 629:Core/Src/lis3dh_driver.c ****     return MEMS_ERROR;
 630:Core/Src/lis3dh_driver.c ****   
ARM GAS  /tmp/ccQFuNLL.s 			page 46


 631:Core/Src/lis3dh_driver.c ****   value &= 0xF7;
 632:Core/Src/lis3dh_driver.c ****   value |= (state<<LIS3DH_FDS);
 633:Core/Src/lis3dh_driver.c ****   
 634:Core/Src/lis3dh_driver.c ****   if( !LIS3DH_WriteReg(LIS3DH_CTRL_REG2, value) )
 635:Core/Src/lis3dh_driver.c ****     return MEMS_ERROR;
 636:Core/Src/lis3dh_driver.c ****   
 637:Core/Src/lis3dh_driver.c ****   return MEMS_SUCCESS;
 638:Core/Src/lis3dh_driver.c ****   
 639:Core/Src/lis3dh_driver.c **** }
 1700              		.loc 1 639 1 view .LVU455
 1701 0012 02B0     		add	sp, sp, #8
 1702              	.LCFI72:
 1703              		.cfi_remember_state
 1704              		.cfi_def_cfa_offset 8
 1705              		@ sp needed
 1706 0014 10BD     		pop	{r4, pc}
 1707              	.L114:
 1708              	.LCFI73:
 1709              		.cfi_restore_state
 631:Core/Src/lis3dh_driver.c ****   value |= (state<<LIS3DH_FDS);
 1710              		.loc 1 631 3 is_stmt 1 view .LVU456
 631:Core/Src/lis3dh_driver.c ****   value |= (state<<LIS3DH_FDS);
 1711              		.loc 1 631 9 is_stmt 0 view .LVU457
 1712 0016 9DF80710 		ldrb	r1, [sp, #7]	@ zero_extendqisi2
 1713 001a 01F0F701 		and	r1, r1, #247
 1714 001e 8DF80710 		strb	r1, [sp, #7]
 632:Core/Src/lis3dh_driver.c ****   
 1715              		.loc 1 632 3 is_stmt 1 view .LVU458
 632:Core/Src/lis3dh_driver.c ****   
 1716              		.loc 1 632 9 is_stmt 0 view .LVU459
 1717 0022 41EAC401 		orr	r1, r1, r4, lsl #3
 1718 0026 C9B2     		uxtb	r1, r1
 1719 0028 8DF80710 		strb	r1, [sp, #7]
 634:Core/Src/lis3dh_driver.c ****     return MEMS_ERROR;
 1720              		.loc 1 634 3 is_stmt 1 view .LVU460
 634:Core/Src/lis3dh_driver.c ****     return MEMS_ERROR;
 1721              		.loc 1 634 8 is_stmt 0 view .LVU461
 1722 002c 2120     		movs	r0, #33
 1723 002e FFF7FEFF 		bl	LIS3DH_WriteReg
 1724              	.LVL88:
 634:Core/Src/lis3dh_driver.c ****     return MEMS_ERROR;
 1725              		.loc 1 634 5 view .LVU462
 1726 0032 0028     		cmp	r0, #0
 1727 0034 EDD0     		beq	.L112
 637:Core/Src/lis3dh_driver.c ****   
 1728              		.loc 1 637 10 view .LVU463
 1729 0036 0120     		movs	r0, #1
 1730 0038 EBE7     		b	.L112
 1731              		.cfi_endproc
 1732              	.LFE19:
 1734              		.section	.text.LIS3DH_SetInt1Pin,"ax",%progbits
 1735              		.align	1
 1736              		.global	LIS3DH_SetInt1Pin
 1737              		.syntax unified
 1738              		.thumb
 1739              		.thumb_func
 1741              	LIS3DH_SetInt1Pin:
ARM GAS  /tmp/ccQFuNLL.s 			page 47


 1742              	.LVL89:
 1743              	.LFB20:
 640:Core/Src/lis3dh_driver.c **** 
 641:Core/Src/lis3dh_driver.c **** 
 642:Core/Src/lis3dh_driver.c **** /*******************************************************************************
 643:Core/Src/lis3dh_driver.c **** * Function Name  : LIS3DH_SetInt1Pin
 644:Core/Src/lis3dh_driver.c **** * Description    : Set Interrupt1 pin Function
 645:Core/Src/lis3dh_driver.c **** * Input          :  LIS3DH_CLICK_ON_PIN_INT1_ENABLE/DISABLE    | LIS3DH_I1_INT1_ON_PIN_INT1_ENABLE/
 646:Core/Src/lis3dh_driver.c ****                     LIS3DH_I1_INT2_ON_PIN_INT1_ENABLE/DISABLE  | LIS3DH_I1_DRDY1_ON_INT1_ENABLE/DIS
 647:Core/Src/lis3dh_driver.c ****                     LIS3DH_I1_DRDY2_ON_INT1_ENABLE/DISABLE     | LIS3DH_WTM_ON_INT1_ENABLE/DISABLE 
 648:Core/Src/lis3dh_driver.c ****                     LIS3DH_INT1_OVERRUN_ENABLE/DISABLE  
 649:Core/Src/lis3dh_driver.c **** * example        : SetInt1Pin(LIS3DH_CLICK_ON_PIN_INT1_ENABLE | LIS3DH_I1_INT1_ON_PIN_INT1_ENABLE |
 650:Core/Src/lis3dh_driver.c ****                     LIS3DH_I1_INT2_ON_PIN_INT1_DISABLE | LIS3DH_I1_DRDY1_ON_INT1_ENABLE | LIS3DH_I1
 651:Core/Src/lis3dh_driver.c ****                     LIS3DH_WTM_ON_INT1_DISABLE | LIS3DH_INT1_OVERRUN_DISABLE   ) 
 652:Core/Src/lis3dh_driver.c **** * Note           : To enable Interrupt signals on INT1 Pad (You MUST use all input variable in the 
 653:Core/Src/lis3dh_driver.c **** * Output         : None
 654:Core/Src/lis3dh_driver.c **** * Return         : Status [MEMS_ERROR, MEMS_SUCCESS]
 655:Core/Src/lis3dh_driver.c **** *******************************************************************************/
 656:Core/Src/lis3dh_driver.c **** status_t LIS3DH_SetInt1Pin(LIS3DH_IntPinConf_t pinConf) {
 1744              		.loc 1 656 57 is_stmt 1 view -0
 1745              		.cfi_startproc
 1746              		@ args = 0, pretend = 0, frame = 8
 1747              		@ frame_needed = 0, uses_anonymous_args = 0
 1748              		.loc 1 656 57 is_stmt 0 view .LVU465
 1749 0000 10B5     		push	{r4, lr}
 1750              	.LCFI74:
 1751              		.cfi_def_cfa_offset 8
 1752              		.cfi_offset 4, -8
 1753              		.cfi_offset 14, -4
 1754 0002 82B0     		sub	sp, sp, #8
 1755              	.LCFI75:
 1756              		.cfi_def_cfa_offset 16
 1757 0004 0446     		mov	r4, r0
 657:Core/Src/lis3dh_driver.c ****   u8_t value;
 1758              		.loc 1 657 3 is_stmt 1 view .LVU466
 658:Core/Src/lis3dh_driver.c ****   
 659:Core/Src/lis3dh_driver.c ****   if( !LIS3DH_ReadReg(LIS3DH_CTRL_REG3, &value) )
 1759              		.loc 1 659 3 view .LVU467
 1760              		.loc 1 659 8 is_stmt 0 view .LVU468
 1761 0006 0DF10701 		add	r1, sp, #7
 1762 000a 2220     		movs	r0, #34
 1763              	.LVL90:
 1764              		.loc 1 659 8 view .LVU469
 1765 000c FFF7FEFF 		bl	LIS3DH_ReadReg
 1766              	.LVL91:
 1767              		.loc 1 659 5 view .LVU470
 1768 0010 08B9     		cbnz	r0, .L118
 1769              	.L116:
 660:Core/Src/lis3dh_driver.c ****     return MEMS_ERROR;
 661:Core/Src/lis3dh_driver.c ****   
 662:Core/Src/lis3dh_driver.c ****   value &= 0x00;
 663:Core/Src/lis3dh_driver.c ****   value |= pinConf;
 664:Core/Src/lis3dh_driver.c ****   
 665:Core/Src/lis3dh_driver.c ****   if( !LIS3DH_WriteReg(LIS3DH_CTRL_REG3, value) )
 666:Core/Src/lis3dh_driver.c ****     return MEMS_ERROR;
 667:Core/Src/lis3dh_driver.c ****   
 668:Core/Src/lis3dh_driver.c ****   return MEMS_SUCCESS;
ARM GAS  /tmp/ccQFuNLL.s 			page 48


 669:Core/Src/lis3dh_driver.c **** }
 1770              		.loc 1 669 1 view .LVU471
 1771 0012 02B0     		add	sp, sp, #8
 1772              	.LCFI76:
 1773              		.cfi_remember_state
 1774              		.cfi_def_cfa_offset 8
 1775              		@ sp needed
 1776 0014 10BD     		pop	{r4, pc}
 1777              	.L118:
 1778              	.LCFI77:
 1779              		.cfi_restore_state
 662:Core/Src/lis3dh_driver.c ****   value |= pinConf;
 1780              		.loc 1 662 3 is_stmt 1 view .LVU472
 662:Core/Src/lis3dh_driver.c ****   value |= pinConf;
 1781              		.loc 1 662 9 is_stmt 0 view .LVU473
 1782 0016 0023     		movs	r3, #0
 1783 0018 8DF80730 		strb	r3, [sp, #7]
 663:Core/Src/lis3dh_driver.c ****   
 1784              		.loc 1 663 3 is_stmt 1 view .LVU474
 663:Core/Src/lis3dh_driver.c ****   
 1785              		.loc 1 663 9 is_stmt 0 view .LVU475
 1786 001c 8DF80740 		strb	r4, [sp, #7]
 665:Core/Src/lis3dh_driver.c ****     return MEMS_ERROR;
 1787              		.loc 1 665 3 is_stmt 1 view .LVU476
 665:Core/Src/lis3dh_driver.c ****     return MEMS_ERROR;
 1788              		.loc 1 665 8 is_stmt 0 view .LVU477
 1789 0020 2146     		mov	r1, r4
 1790 0022 2220     		movs	r0, #34
 1791 0024 FFF7FEFF 		bl	LIS3DH_WriteReg
 1792              	.LVL92:
 665:Core/Src/lis3dh_driver.c ****     return MEMS_ERROR;
 1793              		.loc 1 665 5 view .LVU478
 1794 0028 0028     		cmp	r0, #0
 1795 002a F2D0     		beq	.L116
 668:Core/Src/lis3dh_driver.c **** }
 1796              		.loc 1 668 10 view .LVU479
 1797 002c 0120     		movs	r0, #1
 1798 002e F0E7     		b	.L116
 1799              		.cfi_endproc
 1800              	.LFE20:
 1802              		.section	.text.LIS3DH_SetInt2Pin,"ax",%progbits
 1803              		.align	1
 1804              		.global	LIS3DH_SetInt2Pin
 1805              		.syntax unified
 1806              		.thumb
 1807              		.thumb_func
 1809              	LIS3DH_SetInt2Pin:
 1810              	.LVL93:
 1811              	.LFB21:
 670:Core/Src/lis3dh_driver.c **** 
 671:Core/Src/lis3dh_driver.c **** 
 672:Core/Src/lis3dh_driver.c **** /*******************************************************************************
 673:Core/Src/lis3dh_driver.c **** * Function Name  : LIS3DH_SetInt2Pin
 674:Core/Src/lis3dh_driver.c **** * Description    : Set Interrupt2 pin Function
 675:Core/Src/lis3dh_driver.c **** * Input          : LIS3DH_CLICK_ON_PIN_INT2_ENABLE/DISABLE   | LIS3DH_I2_INT1_ON_PIN_INT2_ENABLE/DI
 676:Core/Src/lis3dh_driver.c ****                    LIS3DH_I2_INT2_ON_PIN_INT2_ENABLE/DISABLE | LIS3DH_I2_BOOT_ON_INT2_ENABLE/DISABL
 677:Core/Src/lis3dh_driver.c ****                    LIS3DH_INT_ACTIVE_HIGH/LOW
ARM GAS  /tmp/ccQFuNLL.s 			page 49


 678:Core/Src/lis3dh_driver.c **** * example        : LIS3DH_SetInt2Pin(LIS3DH_CLICK_ON_PIN_INT2_ENABLE/DISABLE | LIS3DH_I2_INT1_ON_PI
 679:Core/Src/lis3dh_driver.c ****                    LIS3DH_I2_INT2_ON_PIN_INT2_ENABLE/DISABLE | LIS3DH_I2_BOOT_ON_INT2_ENABLE/DISABL
 680:Core/Src/lis3dh_driver.c ****                    LIS3DH_INT_ACTIVE_HIGH/LOW)
 681:Core/Src/lis3dh_driver.c **** * Note           : To enable Interrupt signals on INT2 Pad (You MUST use all input variable in the 
 682:Core/Src/lis3dh_driver.c **** * Output         : None
 683:Core/Src/lis3dh_driver.c **** * Return         : Status [MEMS_ERROR, MEMS_SUCCESS]
 684:Core/Src/lis3dh_driver.c **** *******************************************************************************/
 685:Core/Src/lis3dh_driver.c **** status_t LIS3DH_SetInt2Pin(LIS3DH_IntPinConf_t pinConf) {
 1812              		.loc 1 685 57 is_stmt 1 view -0
 1813              		.cfi_startproc
 1814              		@ args = 0, pretend = 0, frame = 8
 1815              		@ frame_needed = 0, uses_anonymous_args = 0
 1816              		.loc 1 685 57 is_stmt 0 view .LVU481
 1817 0000 10B5     		push	{r4, lr}
 1818              	.LCFI78:
 1819              		.cfi_def_cfa_offset 8
 1820              		.cfi_offset 4, -8
 1821              		.cfi_offset 14, -4
 1822 0002 82B0     		sub	sp, sp, #8
 1823              	.LCFI79:
 1824              		.cfi_def_cfa_offset 16
 1825 0004 0446     		mov	r4, r0
 686:Core/Src/lis3dh_driver.c ****   u8_t value;
 1826              		.loc 1 686 3 is_stmt 1 view .LVU482
 687:Core/Src/lis3dh_driver.c ****   
 688:Core/Src/lis3dh_driver.c ****   if( !LIS3DH_ReadReg(LIS3DH_CTRL_REG6, &value) )
 1827              		.loc 1 688 3 view .LVU483
 1828              		.loc 1 688 8 is_stmt 0 view .LVU484
 1829 0006 0DF10701 		add	r1, sp, #7
 1830 000a 2520     		movs	r0, #37
 1831              	.LVL94:
 1832              		.loc 1 688 8 view .LVU485
 1833 000c FFF7FEFF 		bl	LIS3DH_ReadReg
 1834              	.LVL95:
 1835              		.loc 1 688 5 view .LVU486
 1836 0010 08B9     		cbnz	r0, .L122
 1837              	.L120:
 689:Core/Src/lis3dh_driver.c ****     return MEMS_ERROR;
 690:Core/Src/lis3dh_driver.c ****   
 691:Core/Src/lis3dh_driver.c ****   value &= 0x00;
 692:Core/Src/lis3dh_driver.c ****   value |= pinConf;
 693:Core/Src/lis3dh_driver.c ****   
 694:Core/Src/lis3dh_driver.c ****   if( !LIS3DH_WriteReg(LIS3DH_CTRL_REG6, value) )
 695:Core/Src/lis3dh_driver.c ****     return MEMS_ERROR;
 696:Core/Src/lis3dh_driver.c ****   
 697:Core/Src/lis3dh_driver.c ****   return MEMS_SUCCESS;
 698:Core/Src/lis3dh_driver.c **** }                       
 1838              		.loc 1 698 1 view .LVU487
 1839 0012 02B0     		add	sp, sp, #8
 1840              	.LCFI80:
 1841              		.cfi_remember_state
 1842              		.cfi_def_cfa_offset 8
 1843              		@ sp needed
 1844 0014 10BD     		pop	{r4, pc}
 1845              	.L122:
 1846              	.LCFI81:
 1847              		.cfi_restore_state
ARM GAS  /tmp/ccQFuNLL.s 			page 50


 691:Core/Src/lis3dh_driver.c ****   value |= pinConf;
 1848              		.loc 1 691 3 is_stmt 1 view .LVU488
 691:Core/Src/lis3dh_driver.c ****   value |= pinConf;
 1849              		.loc 1 691 9 is_stmt 0 view .LVU489
 1850 0016 0023     		movs	r3, #0
 1851 0018 8DF80730 		strb	r3, [sp, #7]
 692:Core/Src/lis3dh_driver.c ****   
 1852              		.loc 1 692 3 is_stmt 1 view .LVU490
 692:Core/Src/lis3dh_driver.c ****   
 1853              		.loc 1 692 9 is_stmt 0 view .LVU491
 1854 001c 8DF80740 		strb	r4, [sp, #7]
 694:Core/Src/lis3dh_driver.c ****     return MEMS_ERROR;
 1855              		.loc 1 694 3 is_stmt 1 view .LVU492
 694:Core/Src/lis3dh_driver.c ****     return MEMS_ERROR;
 1856              		.loc 1 694 8 is_stmt 0 view .LVU493
 1857 0020 2146     		mov	r1, r4
 1858 0022 2520     		movs	r0, #37
 1859 0024 FFF7FEFF 		bl	LIS3DH_WriteReg
 1860              	.LVL96:
 694:Core/Src/lis3dh_driver.c ****     return MEMS_ERROR;
 1861              		.loc 1 694 5 view .LVU494
 1862 0028 0028     		cmp	r0, #0
 1863 002a F2D0     		beq	.L120
 697:Core/Src/lis3dh_driver.c **** }                       
 1864              		.loc 1 697 10 view .LVU495
 1865 002c 0120     		movs	r0, #1
 1866 002e F0E7     		b	.L120
 1867              		.cfi_endproc
 1868              	.LFE21:
 1870              		.section	.text.LIS3DH_SetClickCFG,"ax",%progbits
 1871              		.align	1
 1872              		.global	LIS3DH_SetClickCFG
 1873              		.syntax unified
 1874              		.thumb
 1875              		.thumb_func
 1877              	LIS3DH_SetClickCFG:
 1878              	.LVL97:
 1879              	.LFB22:
 699:Core/Src/lis3dh_driver.c **** 
 700:Core/Src/lis3dh_driver.c **** 
 701:Core/Src/lis3dh_driver.c **** /*******************************************************************************
 702:Core/Src/lis3dh_driver.c **** * Function Name  : LIS3DH_SetClickCFG
 703:Core/Src/lis3dh_driver.c **** * Description    : Set Click Interrupt config Function
 704:Core/Src/lis3dh_driver.c **** * Input          : LIS3DH_ZD_ENABLE/DISABLE | LIS3DH_ZS_ENABLE/DISABLE  | LIS3DH_YD_ENABLE/DISABLE 
 705:Core/Src/lis3dh_driver.c ****                    LIS3DH_YS_ENABLE/DISABLE | LIS3DH_XD_ENABLE/DISABLE  | LIS3DH_XS_ENABLE/DISABLE 
 706:Core/Src/lis3dh_driver.c **** * example        : LIS3DH_SetClickCFG( LIS3DH_ZD_ENABLE | LIS3DH_ZS_DISABLE | LIS3DH_YD_ENABLE | 
 707:Core/Src/lis3dh_driver.c ****                                LIS3DH_YS_DISABLE | LIS3DH_XD_ENABLE | LIS3DH_XS_ENABLE)
 708:Core/Src/lis3dh_driver.c **** * Note           : You MUST use all input variable in the argument, as example
 709:Core/Src/lis3dh_driver.c **** * Output         : None
 710:Core/Src/lis3dh_driver.c **** * Return         : Status [MEMS_ERROR, MEMS_SUCCESS]
 711:Core/Src/lis3dh_driver.c **** *******************************************************************************/
 712:Core/Src/lis3dh_driver.c **** status_t LIS3DH_SetClickCFG(u8_t status) {
 1880              		.loc 1 712 42 is_stmt 1 view -0
 1881              		.cfi_startproc
 1882              		@ args = 0, pretend = 0, frame = 8
 1883              		@ frame_needed = 0, uses_anonymous_args = 0
 1884              		.loc 1 712 42 is_stmt 0 view .LVU497
ARM GAS  /tmp/ccQFuNLL.s 			page 51


 1885 0000 10B5     		push	{r4, lr}
 1886              	.LCFI82:
 1887              		.cfi_def_cfa_offset 8
 1888              		.cfi_offset 4, -8
 1889              		.cfi_offset 14, -4
 1890 0002 82B0     		sub	sp, sp, #8
 1891              	.LCFI83:
 1892              		.cfi_def_cfa_offset 16
 1893 0004 0446     		mov	r4, r0
 713:Core/Src/lis3dh_driver.c ****   u8_t value;
 1894              		.loc 1 713 3 is_stmt 1 view .LVU498
 714:Core/Src/lis3dh_driver.c ****   
 715:Core/Src/lis3dh_driver.c ****   if( !LIS3DH_ReadReg(LIS3DH_CLICK_CFG, &value) )
 1895              		.loc 1 715 3 view .LVU499
 1896              		.loc 1 715 8 is_stmt 0 view .LVU500
 1897 0006 0DF10701 		add	r1, sp, #7
 1898 000a 3820     		movs	r0, #56
 1899              	.LVL98:
 1900              		.loc 1 715 8 view .LVU501
 1901 000c FFF7FEFF 		bl	LIS3DH_ReadReg
 1902              	.LVL99:
 1903              		.loc 1 715 5 view .LVU502
 1904 0010 08B9     		cbnz	r0, .L126
 1905              	.L124:
 716:Core/Src/lis3dh_driver.c ****     return MEMS_ERROR;
 717:Core/Src/lis3dh_driver.c ****   
 718:Core/Src/lis3dh_driver.c ****   value &= 0xC0;
 719:Core/Src/lis3dh_driver.c ****   value |= status;
 720:Core/Src/lis3dh_driver.c ****   
 721:Core/Src/lis3dh_driver.c ****   if( !LIS3DH_WriteReg(LIS3DH_CLICK_CFG, value) )
 722:Core/Src/lis3dh_driver.c ****     return MEMS_ERROR;
 723:Core/Src/lis3dh_driver.c ****   
 724:Core/Src/lis3dh_driver.c ****   return MEMS_SUCCESS;
 725:Core/Src/lis3dh_driver.c **** }  
 1906              		.loc 1 725 1 view .LVU503
 1907 0012 02B0     		add	sp, sp, #8
 1908              	.LCFI84:
 1909              		.cfi_remember_state
 1910              		.cfi_def_cfa_offset 8
 1911              		@ sp needed
 1912 0014 10BD     		pop	{r4, pc}
 1913              	.L126:
 1914              	.LCFI85:
 1915              		.cfi_restore_state
 718:Core/Src/lis3dh_driver.c ****   value |= status;
 1916              		.loc 1 718 3 is_stmt 1 view .LVU504
 718:Core/Src/lis3dh_driver.c ****   value |= status;
 1917              		.loc 1 718 9 is_stmt 0 view .LVU505
 1918 0016 9DF80710 		ldrb	r1, [sp, #7]	@ zero_extendqisi2
 1919 001a 01F0C001 		and	r1, r1, #192
 1920 001e 8DF80710 		strb	r1, [sp, #7]
 719:Core/Src/lis3dh_driver.c ****   
 1921              		.loc 1 719 3 is_stmt 1 view .LVU506
 719:Core/Src/lis3dh_driver.c ****   
 1922              		.loc 1 719 9 is_stmt 0 view .LVU507
 1923 0022 2143     		orrs	r1, r1, r4
 1924 0024 8DF80710 		strb	r1, [sp, #7]
ARM GAS  /tmp/ccQFuNLL.s 			page 52


 721:Core/Src/lis3dh_driver.c ****     return MEMS_ERROR;
 1925              		.loc 1 721 3 is_stmt 1 view .LVU508
 721:Core/Src/lis3dh_driver.c ****     return MEMS_ERROR;
 1926              		.loc 1 721 8 is_stmt 0 view .LVU509
 1927 0028 3820     		movs	r0, #56
 1928 002a FFF7FEFF 		bl	LIS3DH_WriteReg
 1929              	.LVL100:
 721:Core/Src/lis3dh_driver.c ****     return MEMS_ERROR;
 1930              		.loc 1 721 5 view .LVU510
 1931 002e 0028     		cmp	r0, #0
 1932 0030 EFD0     		beq	.L124
 724:Core/Src/lis3dh_driver.c **** }  
 1933              		.loc 1 724 10 view .LVU511
 1934 0032 0120     		movs	r0, #1
 1935 0034 EDE7     		b	.L124
 1936              		.cfi_endproc
 1937              	.LFE22:
 1939              		.section	.text.LIS3DH_SetClickTHS,"ax",%progbits
 1940              		.align	1
 1941              		.global	LIS3DH_SetClickTHS
 1942              		.syntax unified
 1943              		.thumb
 1944              		.thumb_func
 1946              	LIS3DH_SetClickTHS:
 1947              	.LVL101:
 1948              	.LFB23:
 726:Core/Src/lis3dh_driver.c **** 
 727:Core/Src/lis3dh_driver.c **** 
 728:Core/Src/lis3dh_driver.c **** /*******************************************************************************
 729:Core/Src/lis3dh_driver.c **** * Function Name  : LIS3DH_SetClickTHS
 730:Core/Src/lis3dh_driver.c **** * Description    : Set Click Interrupt threshold
 731:Core/Src/lis3dh_driver.c **** * Input          : Click-click Threshold value [0-127]
 732:Core/Src/lis3dh_driver.c **** * Output         : None
 733:Core/Src/lis3dh_driver.c **** * Return         : Status [MEMS_ERROR, MEMS_SUCCESS]
 734:Core/Src/lis3dh_driver.c **** *******************************************************************************/
 735:Core/Src/lis3dh_driver.c **** status_t LIS3DH_SetClickTHS(u8_t ths) {
 1949              		.loc 1 735 39 is_stmt 1 view -0
 1950              		.cfi_startproc
 1951              		@ args = 0, pretend = 0, frame = 0
 1952              		@ frame_needed = 0, uses_anonymous_args = 0
 736:Core/Src/lis3dh_driver.c ****   
 737:Core/Src/lis3dh_driver.c ****   if(ths>127)     
 1953              		.loc 1 737 3 view .LVU513
 1954              		.loc 1 737 5 is_stmt 0 view .LVU514
 1955 0000 10F0800F 		tst	r0, #128
 1956 0004 07D1     		bne	.L129
 735:Core/Src/lis3dh_driver.c ****   
 1957              		.loc 1 735 39 view .LVU515
 1958 0006 08B5     		push	{r3, lr}
 1959              	.LCFI86:
 1960              		.cfi_def_cfa_offset 8
 1961              		.cfi_offset 3, -8
 1962              		.cfi_offset 14, -4
 1963 0008 0146     		mov	r1, r0
 738:Core/Src/lis3dh_driver.c ****     return MEMS_ERROR;
 739:Core/Src/lis3dh_driver.c ****   
 740:Core/Src/lis3dh_driver.c ****   if( !LIS3DH_WriteReg(LIS3DH_CLICK_THS, ths) )
ARM GAS  /tmp/ccQFuNLL.s 			page 53


 1964              		.loc 1 740 3 is_stmt 1 view .LVU516
 1965              		.loc 1 740 8 is_stmt 0 view .LVU517
 1966 000a 3A20     		movs	r0, #58
 1967              	.LVL102:
 1968              		.loc 1 740 8 view .LVU518
 1969 000c FFF7FEFF 		bl	LIS3DH_WriteReg
 1970              	.LVL103:
 1971              		.loc 1 740 5 view .LVU519
 1972 0010 00B1     		cbz	r0, .L128
 741:Core/Src/lis3dh_driver.c ****     return MEMS_ERROR;
 742:Core/Src/lis3dh_driver.c ****   
 743:Core/Src/lis3dh_driver.c ****   return MEMS_SUCCESS;
 1973              		.loc 1 743 10 view .LVU520
 1974 0012 0120     		movs	r0, #1
 1975              	.L128:
 744:Core/Src/lis3dh_driver.c **** } 
 1976              		.loc 1 744 1 view .LVU521
 1977 0014 08BD     		pop	{r3, pc}
 1978              	.LVL104:
 1979              	.L129:
 1980              	.LCFI87:
 1981              		.cfi_def_cfa_offset 0
 1982              		.cfi_restore 3
 1983              		.cfi_restore 14
 738:Core/Src/lis3dh_driver.c ****     return MEMS_ERROR;
 1984              		.loc 1 738 12 view .LVU522
 1985 0016 0020     		movs	r0, #0
 1986              	.LVL105:
 1987              		.loc 1 744 1 view .LVU523
 1988 0018 7047     		bx	lr
 1989              		.cfi_endproc
 1990              	.LFE23:
 1992              		.section	.text.LIS3DH_SetClickLIMIT,"ax",%progbits
 1993              		.align	1
 1994              		.global	LIS3DH_SetClickLIMIT
 1995              		.syntax unified
 1996              		.thumb
 1997              		.thumb_func
 1999              	LIS3DH_SetClickLIMIT:
 2000              	.LVL106:
 2001              	.LFB24:
 745:Core/Src/lis3dh_driver.c **** 
 746:Core/Src/lis3dh_driver.c **** 
 747:Core/Src/lis3dh_driver.c **** /*******************************************************************************
 748:Core/Src/lis3dh_driver.c **** * Function Name  : LIS3DH_SetClickLIMIT
 749:Core/Src/lis3dh_driver.c **** * Description    : Set Click Interrupt Time Limit
 750:Core/Src/lis3dh_driver.c **** * Input          : Click-click Time Limit value [0-127]
 751:Core/Src/lis3dh_driver.c **** * Output         : None
 752:Core/Src/lis3dh_driver.c **** * Return         : Status [MEMS_ERROR, MEMS_SUCCESS]
 753:Core/Src/lis3dh_driver.c **** *******************************************************************************/
 754:Core/Src/lis3dh_driver.c **** status_t LIS3DH_SetClickLIMIT(u8_t t_limit) {
 2002              		.loc 1 754 45 is_stmt 1 view -0
 2003              		.cfi_startproc
 2004              		@ args = 0, pretend = 0, frame = 0
 2005              		@ frame_needed = 0, uses_anonymous_args = 0
 755:Core/Src/lis3dh_driver.c ****   
 756:Core/Src/lis3dh_driver.c ****   if(t_limit>127)     
ARM GAS  /tmp/ccQFuNLL.s 			page 54


 2006              		.loc 1 756 3 view .LVU525
 2007              		.loc 1 756 5 is_stmt 0 view .LVU526
 2008 0000 10F0800F 		tst	r0, #128
 2009 0004 07D1     		bne	.L136
 754:Core/Src/lis3dh_driver.c ****   
 2010              		.loc 1 754 45 view .LVU527
 2011 0006 08B5     		push	{r3, lr}
 2012              	.LCFI88:
 2013              		.cfi_def_cfa_offset 8
 2014              		.cfi_offset 3, -8
 2015              		.cfi_offset 14, -4
 2016 0008 0146     		mov	r1, r0
 757:Core/Src/lis3dh_driver.c ****     return MEMS_ERROR;
 758:Core/Src/lis3dh_driver.c ****   
 759:Core/Src/lis3dh_driver.c ****   if( !LIS3DH_WriteReg(LIS3DH_TIME_LIMIT, t_limit) )
 2017              		.loc 1 759 3 is_stmt 1 view .LVU528
 2018              		.loc 1 759 8 is_stmt 0 view .LVU529
 2019 000a 3B20     		movs	r0, #59
 2020              	.LVL107:
 2021              		.loc 1 759 8 view .LVU530
 2022 000c FFF7FEFF 		bl	LIS3DH_WriteReg
 2023              	.LVL108:
 2024              		.loc 1 759 5 view .LVU531
 2025 0010 00B1     		cbz	r0, .L135
 760:Core/Src/lis3dh_driver.c ****     return MEMS_ERROR;
 761:Core/Src/lis3dh_driver.c ****   
 762:Core/Src/lis3dh_driver.c ****   return MEMS_SUCCESS;
 2026              		.loc 1 762 10 view .LVU532
 2027 0012 0120     		movs	r0, #1
 2028              	.L135:
 763:Core/Src/lis3dh_driver.c **** } 
 2029              		.loc 1 763 1 view .LVU533
 2030 0014 08BD     		pop	{r3, pc}
 2031              	.LVL109:
 2032              	.L136:
 2033              	.LCFI89:
 2034              		.cfi_def_cfa_offset 0
 2035              		.cfi_restore 3
 2036              		.cfi_restore 14
 757:Core/Src/lis3dh_driver.c ****     return MEMS_ERROR;
 2037              		.loc 1 757 12 view .LVU534
 2038 0016 0020     		movs	r0, #0
 2039              	.LVL110:
 2040              		.loc 1 763 1 view .LVU535
 2041 0018 7047     		bx	lr
 2042              		.cfi_endproc
 2043              	.LFE24:
 2045              		.section	.text.LIS3DH_SetClickLATENCY,"ax",%progbits
 2046              		.align	1
 2047              		.global	LIS3DH_SetClickLATENCY
 2048              		.syntax unified
 2049              		.thumb
 2050              		.thumb_func
 2052              	LIS3DH_SetClickLATENCY:
 2053              	.LVL111:
 2054              	.LFB25:
 764:Core/Src/lis3dh_driver.c **** 
ARM GAS  /tmp/ccQFuNLL.s 			page 55


 765:Core/Src/lis3dh_driver.c **** 
 766:Core/Src/lis3dh_driver.c **** /*******************************************************************************
 767:Core/Src/lis3dh_driver.c **** * Function Name  : LIS3DH_SetClickLATENCY
 768:Core/Src/lis3dh_driver.c **** * Description    : Set Click Interrupt Time Latency
 769:Core/Src/lis3dh_driver.c **** * Input          : Click-click Time Latency value [0-255]
 770:Core/Src/lis3dh_driver.c **** * Output         : None
 771:Core/Src/lis3dh_driver.c **** * Return         : Status [MEMS_ERROR, MEMS_SUCCESS]
 772:Core/Src/lis3dh_driver.c **** *******************************************************************************/
 773:Core/Src/lis3dh_driver.c **** status_t LIS3DH_SetClickLATENCY(u8_t t_latency) {
 2055              		.loc 1 773 49 is_stmt 1 view -0
 2056              		.cfi_startproc
 2057              		@ args = 0, pretend = 0, frame = 0
 2058              		@ frame_needed = 0, uses_anonymous_args = 0
 2059              		.loc 1 773 49 is_stmt 0 view .LVU537
 2060 0000 08B5     		push	{r3, lr}
 2061              	.LCFI90:
 2062              		.cfi_def_cfa_offset 8
 2063              		.cfi_offset 3, -8
 2064              		.cfi_offset 14, -4
 2065 0002 0146     		mov	r1, r0
 774:Core/Src/lis3dh_driver.c ****   
 775:Core/Src/lis3dh_driver.c ****   if( !LIS3DH_WriteReg(LIS3DH_TIME_LATENCY, t_latency) )
 2066              		.loc 1 775 3 is_stmt 1 view .LVU538
 2067              		.loc 1 775 8 is_stmt 0 view .LVU539
 2068 0004 3C20     		movs	r0, #60
 2069              	.LVL112:
 2070              		.loc 1 775 8 view .LVU540
 2071 0006 FFF7FEFF 		bl	LIS3DH_WriteReg
 2072              	.LVL113:
 2073              		.loc 1 775 5 view .LVU541
 2074 000a 00B1     		cbz	r0, .L142
 776:Core/Src/lis3dh_driver.c ****     return MEMS_ERROR;
 777:Core/Src/lis3dh_driver.c ****   
 778:Core/Src/lis3dh_driver.c ****   return MEMS_SUCCESS;
 2075              		.loc 1 778 10 view .LVU542
 2076 000c 0120     		movs	r0, #1
 2077              	.L142:
 779:Core/Src/lis3dh_driver.c **** } 
 2078              		.loc 1 779 1 view .LVU543
 2079 000e 08BD     		pop	{r3, pc}
 2080              		.cfi_endproc
 2081              	.LFE25:
 2083              		.section	.text.LIS3DH_SetClickWINDOW,"ax",%progbits
 2084              		.align	1
 2085              		.global	LIS3DH_SetClickWINDOW
 2086              		.syntax unified
 2087              		.thumb
 2088              		.thumb_func
 2090              	LIS3DH_SetClickWINDOW:
 2091              	.LVL114:
 2092              	.LFB26:
 780:Core/Src/lis3dh_driver.c **** 
 781:Core/Src/lis3dh_driver.c **** 
 782:Core/Src/lis3dh_driver.c **** /*******************************************************************************
 783:Core/Src/lis3dh_driver.c **** * Function Name  : LIS3DH_SetClickWINDOW
 784:Core/Src/lis3dh_driver.c **** * Description    : Set Click Interrupt Time Window
 785:Core/Src/lis3dh_driver.c **** * Input          : Click-click Time Window value [0-255]
ARM GAS  /tmp/ccQFuNLL.s 			page 56


 786:Core/Src/lis3dh_driver.c **** * Output         : None
 787:Core/Src/lis3dh_driver.c **** * Return         : Status [MEMS_ERROR, MEMS_SUCCESS]
 788:Core/Src/lis3dh_driver.c **** *******************************************************************************/
 789:Core/Src/lis3dh_driver.c **** status_t LIS3DH_SetClickWINDOW(u8_t t_window) {
 2093              		.loc 1 789 47 is_stmt 1 view -0
 2094              		.cfi_startproc
 2095              		@ args = 0, pretend = 0, frame = 0
 2096              		@ frame_needed = 0, uses_anonymous_args = 0
 2097              		.loc 1 789 47 is_stmt 0 view .LVU545
 2098 0000 08B5     		push	{r3, lr}
 2099              	.LCFI91:
 2100              		.cfi_def_cfa_offset 8
 2101              		.cfi_offset 3, -8
 2102              		.cfi_offset 14, -4
 2103 0002 0146     		mov	r1, r0
 790:Core/Src/lis3dh_driver.c ****   
 791:Core/Src/lis3dh_driver.c ****   if( !LIS3DH_WriteReg(LIS3DH_TIME_WINDOW, t_window) )
 2104              		.loc 1 791 3 is_stmt 1 view .LVU546
 2105              		.loc 1 791 8 is_stmt 0 view .LVU547
 2106 0004 3D20     		movs	r0, #61
 2107              	.LVL115:
 2108              		.loc 1 791 8 view .LVU548
 2109 0006 FFF7FEFF 		bl	LIS3DH_WriteReg
 2110              	.LVL116:
 2111              		.loc 1 791 5 view .LVU549
 2112 000a 00B1     		cbz	r0, .L145
 792:Core/Src/lis3dh_driver.c ****     return MEMS_ERROR;
 793:Core/Src/lis3dh_driver.c ****   
 794:Core/Src/lis3dh_driver.c ****   return MEMS_SUCCESS;
 2113              		.loc 1 794 10 view .LVU550
 2114 000c 0120     		movs	r0, #1
 2115              	.L145:
 795:Core/Src/lis3dh_driver.c **** }
 2116              		.loc 1 795 1 view .LVU551
 2117 000e 08BD     		pop	{r3, pc}
 2118              		.cfi_endproc
 2119              	.LFE26:
 2121              		.section	.text.LIS3DH_GetClickResponse,"ax",%progbits
 2122              		.align	1
 2123              		.global	LIS3DH_GetClickResponse
 2124              		.syntax unified
 2125              		.thumb
 2126              		.thumb_func
 2128              	LIS3DH_GetClickResponse:
 2129              	.LVL117:
 2130              	.LFB27:
 796:Core/Src/lis3dh_driver.c **** 
 797:Core/Src/lis3dh_driver.c **** 
 798:Core/Src/lis3dh_driver.c **** /*******************************************************************************
 799:Core/Src/lis3dh_driver.c **** * Function Name  : LIS3DH_GetClickResponse
 800:Core/Src/lis3dh_driver.c **** * Description    : Get Click Interrupt Response by CLICK_SRC REGISTER
 801:Core/Src/lis3dh_driver.c **** * Input          : char to empty by Click Response Typedef
 802:Core/Src/lis3dh_driver.c **** * Output         : None
 803:Core/Src/lis3dh_driver.c **** * Return         : Status [MEMS_ERROR, MEMS_SUCCESS]
 804:Core/Src/lis3dh_driver.c **** *******************************************************************************/
 805:Core/Src/lis3dh_driver.c **** status_t LIS3DH_GetClickResponse(u8_t* res) {
 2131              		.loc 1 805 45 is_stmt 1 view -0
ARM GAS  /tmp/ccQFuNLL.s 			page 57


 2132              		.cfi_startproc
 2133              		@ args = 0, pretend = 0, frame = 8
 2134              		@ frame_needed = 0, uses_anonymous_args = 0
 2135              		.loc 1 805 45 is_stmt 0 view .LVU553
 2136 0000 10B5     		push	{r4, lr}
 2137              	.LCFI92:
 2138              		.cfi_def_cfa_offset 8
 2139              		.cfi_offset 4, -8
 2140              		.cfi_offset 14, -4
 2141 0002 82B0     		sub	sp, sp, #8
 2142              	.LCFI93:
 2143              		.cfi_def_cfa_offset 16
 2144 0004 0446     		mov	r4, r0
 806:Core/Src/lis3dh_driver.c ****   u8_t value;
 2145              		.loc 1 806 3 is_stmt 1 view .LVU554
 807:Core/Src/lis3dh_driver.c ****   
 808:Core/Src/lis3dh_driver.c ****   if( !LIS3DH_ReadReg(LIS3DH_CLICK_SRC, &value) ) 
 2146              		.loc 1 808 3 view .LVU555
 2147              		.loc 1 808 8 is_stmt 0 view .LVU556
 2148 0006 0DF10701 		add	r1, sp, #7
 2149 000a 3920     		movs	r0, #57
 2150              	.LVL118:
 2151              		.loc 1 808 8 view .LVU557
 2152 000c FFF7FEFF 		bl	LIS3DH_ReadReg
 2153              	.LVL119:
 2154              		.loc 1 808 5 view .LVU558
 2155 0010 0346     		mov	r3, r0
 2156 0012 F0B1     		cbz	r0, .L148
 809:Core/Src/lis3dh_driver.c ****     return MEMS_ERROR;
 810:Core/Src/lis3dh_driver.c ****   
 811:Core/Src/lis3dh_driver.c ****   value &= 0x7F;
 2157              		.loc 1 811 3 is_stmt 1 view .LVU559
 2158              		.loc 1 811 9 is_stmt 0 view .LVU560
 2159 0014 9DF80730 		ldrb	r3, [sp, #7]	@ zero_extendqisi2
 2160 0018 03F07F03 		and	r3, r3, #127
 2161 001c 8DF80730 		strb	r3, [sp, #7]
 812:Core/Src/lis3dh_driver.c ****   
 813:Core/Src/lis3dh_driver.c ****   if((value & LIS3DH_IA)==0) {        
 2162              		.loc 1 813 3 is_stmt 1 view .LVU561
 2163              		.loc 1 813 5 is_stmt 0 view .LVU562
 2164 0020 13F0400F 		tst	r3, #64
 2165 0024 12D0     		beq	.L162
 814:Core/Src/lis3dh_driver.c ****     *res = LIS3DH_NO_CLICK;     
 815:Core/Src/lis3dh_driver.c ****     return MEMS_SUCCESS;
 816:Core/Src/lis3dh_driver.c ****   }
 817:Core/Src/lis3dh_driver.c ****   else {
 818:Core/Src/lis3dh_driver.c ****     if (value & LIS3DH_DCLICK){
 2166              		.loc 1 818 5 is_stmt 1 view .LVU563
 2167              		.loc 1 818 8 is_stmt 0 view .LVU564
 2168 0026 13F0200F 		tst	r3, #32
 2169 002a 32D0     		beq	.L150
 819:Core/Src/lis3dh_driver.c ****       if (value & LIS3DH_CLICK_SIGN){
 2170              		.loc 1 819 7 is_stmt 1 view .LVU565
 2171              		.loc 1 819 10 is_stmt 0 view .LVU566
 2172 002c 13F0080F 		tst	r3, #8
 2173 0030 1AD0     		beq	.L151
 820:Core/Src/lis3dh_driver.c ****         if (value & LIS3DH_CLICK_Z) {
ARM GAS  /tmp/ccQFuNLL.s 			page 58


 2174              		.loc 1 820 9 is_stmt 1 view .LVU567
 2175              		.loc 1 820 12 is_stmt 0 view .LVU568
 2176 0032 13F0040F 		tst	r3, #4
 2177 0036 0FD1     		bne	.L163
 821:Core/Src/lis3dh_driver.c ****           *res = LIS3DH_DCLICK_Z_N;   
 822:Core/Src/lis3dh_driver.c ****           return MEMS_SUCCESS;
 823:Core/Src/lis3dh_driver.c ****         }
 824:Core/Src/lis3dh_driver.c ****         if (value & LIS3DH_CLICK_Y) {
 2178              		.loc 1 824 9 is_stmt 1 view .LVU569
 2179              		.loc 1 824 12 is_stmt 0 view .LVU570
 2180 0038 13F0020F 		tst	r3, #2
 2181 003c 10D1     		bne	.L164
 825:Core/Src/lis3dh_driver.c ****           *res = LIS3DH_DCLICK_Y_N;   
 826:Core/Src/lis3dh_driver.c ****           return MEMS_SUCCESS;
 827:Core/Src/lis3dh_driver.c ****         }
 828:Core/Src/lis3dh_driver.c ****         if (value & LIS3DH_CLICK_X) {
 2182              		.loc 1 828 9 is_stmt 1 view .LVU571
 2183              		.loc 1 828 12 is_stmt 0 view .LVU572
 2184 003e 13F00103 		ands	r3, r3, #1
 2185 0042 06D0     		beq	.L148
 829:Core/Src/lis3dh_driver.c ****           *res = LIS3DH_DCLICK_X_N;   
 2186              		.loc 1 829 11 is_stmt 1 view .LVU573
 2187              		.loc 1 829 16 is_stmt 0 view .LVU574
 2188 0044 2923     		movs	r3, #41
 2189 0046 2370     		strb	r3, [r4]
 830:Core/Src/lis3dh_driver.c ****           return MEMS_SUCCESS;
 2190              		.loc 1 830 11 is_stmt 1 view .LVU575
 2191              		.loc 1 830 18 is_stmt 0 view .LVU576
 2192 0048 0123     		movs	r3, #1
 2193 004a 02E0     		b	.L148
 2194              	.L162:
 814:Core/Src/lis3dh_driver.c ****     return MEMS_SUCCESS;
 2195              		.loc 1 814 5 is_stmt 1 view .LVU577
 814:Core/Src/lis3dh_driver.c ****     return MEMS_SUCCESS;
 2196              		.loc 1 814 10 is_stmt 0 view .LVU578
 2197 004c 0023     		movs	r3, #0
 2198 004e 2370     		strb	r3, [r4]
 815:Core/Src/lis3dh_driver.c ****   }
 2199              		.loc 1 815 5 is_stmt 1 view .LVU579
 815:Core/Src/lis3dh_driver.c ****   }
 2200              		.loc 1 815 12 is_stmt 0 view .LVU580
 2201 0050 0123     		movs	r3, #1
 2202              	.L148:
 831:Core/Src/lis3dh_driver.c ****         }
 832:Core/Src/lis3dh_driver.c ****       }
 833:Core/Src/lis3dh_driver.c ****       else{
 834:Core/Src/lis3dh_driver.c ****         if (value & LIS3DH_CLICK_Z) {
 835:Core/Src/lis3dh_driver.c ****           *res = LIS3DH_DCLICK_Z_P;   
 836:Core/Src/lis3dh_driver.c ****           return MEMS_SUCCESS;
 837:Core/Src/lis3dh_driver.c ****         }
 838:Core/Src/lis3dh_driver.c ****         if (value & LIS3DH_CLICK_Y) {
 839:Core/Src/lis3dh_driver.c ****           *res = LIS3DH_DCLICK_Y_P;   
 840:Core/Src/lis3dh_driver.c ****           return MEMS_SUCCESS;
 841:Core/Src/lis3dh_driver.c ****         }
 842:Core/Src/lis3dh_driver.c ****         if (value & LIS3DH_CLICK_X) {
 843:Core/Src/lis3dh_driver.c ****           *res = LIS3DH_DCLICK_X_P;   
 844:Core/Src/lis3dh_driver.c ****           return MEMS_SUCCESS;
ARM GAS  /tmp/ccQFuNLL.s 			page 59


 845:Core/Src/lis3dh_driver.c ****         }
 846:Core/Src/lis3dh_driver.c ****       }       
 847:Core/Src/lis3dh_driver.c ****     }
 848:Core/Src/lis3dh_driver.c ****     else{
 849:Core/Src/lis3dh_driver.c ****       if (value & LIS3DH_CLICK_SIGN){
 850:Core/Src/lis3dh_driver.c ****         if (value & LIS3DH_CLICK_Z) {
 851:Core/Src/lis3dh_driver.c ****           *res = LIS3DH_SCLICK_Z_N;   
 852:Core/Src/lis3dh_driver.c ****           return MEMS_SUCCESS;
 853:Core/Src/lis3dh_driver.c ****         }
 854:Core/Src/lis3dh_driver.c ****         if (value & LIS3DH_CLICK_Y) {
 855:Core/Src/lis3dh_driver.c ****           *res = LIS3DH_SCLICK_Y_N;   
 856:Core/Src/lis3dh_driver.c ****           return MEMS_SUCCESS;
 857:Core/Src/lis3dh_driver.c ****         }
 858:Core/Src/lis3dh_driver.c ****         if (value & LIS3DH_CLICK_X) {
 859:Core/Src/lis3dh_driver.c ****           *res = LIS3DH_SCLICK_X_N;   
 860:Core/Src/lis3dh_driver.c ****           return MEMS_SUCCESS;
 861:Core/Src/lis3dh_driver.c ****         }
 862:Core/Src/lis3dh_driver.c ****       }
 863:Core/Src/lis3dh_driver.c ****       else{
 864:Core/Src/lis3dh_driver.c ****         if (value & LIS3DH_CLICK_Z) {
 865:Core/Src/lis3dh_driver.c ****           *res = LIS3DH_SCLICK_Z_P;   
 866:Core/Src/lis3dh_driver.c ****           return MEMS_SUCCESS;
 867:Core/Src/lis3dh_driver.c ****         }
 868:Core/Src/lis3dh_driver.c ****         if (value & LIS3DH_CLICK_Y) {
 869:Core/Src/lis3dh_driver.c ****           *res = LIS3DH_SCLICK_Y_P;   
 870:Core/Src/lis3dh_driver.c ****           return MEMS_SUCCESS;
 871:Core/Src/lis3dh_driver.c ****         }
 872:Core/Src/lis3dh_driver.c ****         if (value & LIS3DH_CLICK_X) {
 873:Core/Src/lis3dh_driver.c ****           *res = LIS3DH_SCLICK_X_P;   
 874:Core/Src/lis3dh_driver.c ****           return MEMS_SUCCESS;
 875:Core/Src/lis3dh_driver.c ****         }
 876:Core/Src/lis3dh_driver.c ****       }
 877:Core/Src/lis3dh_driver.c ****     }
 878:Core/Src/lis3dh_driver.c ****   }
 879:Core/Src/lis3dh_driver.c ****   return MEMS_ERROR;
 880:Core/Src/lis3dh_driver.c **** } 
 2203              		.loc 1 880 1 view .LVU581
 2204 0052 1846     		mov	r0, r3
 2205 0054 02B0     		add	sp, sp, #8
 2206              	.LCFI94:
 2207              		.cfi_remember_state
 2208              		.cfi_def_cfa_offset 8
 2209              		@ sp needed
 2210 0056 10BD     		pop	{r4, pc}
 2211              	.LVL120:
 2212              	.L163:
 2213              	.LCFI95:
 2214              		.cfi_restore_state
 821:Core/Src/lis3dh_driver.c ****           return MEMS_SUCCESS;
 2215              		.loc 1 821 11 is_stmt 1 view .LVU582
 821:Core/Src/lis3dh_driver.c ****           return MEMS_SUCCESS;
 2216              		.loc 1 821 16 is_stmt 0 view .LVU583
 2217 0058 2C23     		movs	r3, #44
 2218 005a 2370     		strb	r3, [r4]
 822:Core/Src/lis3dh_driver.c ****         }
 2219              		.loc 1 822 11 is_stmt 1 view .LVU584
 822:Core/Src/lis3dh_driver.c ****         }
ARM GAS  /tmp/ccQFuNLL.s 			page 60


 2220              		.loc 1 822 18 is_stmt 0 view .LVU585
 2221 005c 0123     		movs	r3, #1
 2222 005e F8E7     		b	.L148
 2223              	.L164:
 825:Core/Src/lis3dh_driver.c ****           return MEMS_SUCCESS;
 2224              		.loc 1 825 11 is_stmt 1 view .LVU586
 825:Core/Src/lis3dh_driver.c ****           return MEMS_SUCCESS;
 2225              		.loc 1 825 16 is_stmt 0 view .LVU587
 2226 0060 2A23     		movs	r3, #42
 2227 0062 2370     		strb	r3, [r4]
 826:Core/Src/lis3dh_driver.c ****         }
 2228              		.loc 1 826 11 is_stmt 1 view .LVU588
 826:Core/Src/lis3dh_driver.c ****         }
 2229              		.loc 1 826 18 is_stmt 0 view .LVU589
 2230 0064 0123     		movs	r3, #1
 2231 0066 F4E7     		b	.L148
 2232              	.L151:
 834:Core/Src/lis3dh_driver.c ****           *res = LIS3DH_DCLICK_Z_P;   
 2233              		.loc 1 834 9 is_stmt 1 view .LVU590
 834:Core/Src/lis3dh_driver.c ****           *res = LIS3DH_DCLICK_Z_P;   
 2234              		.loc 1 834 12 is_stmt 0 view .LVU591
 2235 0068 13F0040F 		tst	r3, #4
 2236 006c 09D1     		bne	.L165
 838:Core/Src/lis3dh_driver.c ****           *res = LIS3DH_DCLICK_Y_P;   
 2237              		.loc 1 838 9 is_stmt 1 view .LVU592
 838:Core/Src/lis3dh_driver.c ****           *res = LIS3DH_DCLICK_Y_P;   
 2238              		.loc 1 838 12 is_stmt 0 view .LVU593
 2239 006e 13F0020F 		tst	r3, #2
 2240 0072 0AD1     		bne	.L166
 842:Core/Src/lis3dh_driver.c ****           *res = LIS3DH_DCLICK_X_P;   
 2241              		.loc 1 842 9 is_stmt 1 view .LVU594
 842:Core/Src/lis3dh_driver.c ****           *res = LIS3DH_DCLICK_X_P;   
 2242              		.loc 1 842 12 is_stmt 0 view .LVU595
 2243 0074 13F00103 		ands	r3, r3, #1
 2244 0078 EBD0     		beq	.L148
 843:Core/Src/lis3dh_driver.c ****           return MEMS_SUCCESS;
 2245              		.loc 1 843 11 is_stmt 1 view .LVU596
 843:Core/Src/lis3dh_driver.c ****           return MEMS_SUCCESS;
 2246              		.loc 1 843 16 is_stmt 0 view .LVU597
 2247 007a 2123     		movs	r3, #33
 2248 007c 2370     		strb	r3, [r4]
 844:Core/Src/lis3dh_driver.c ****         }
 2249              		.loc 1 844 11 is_stmt 1 view .LVU598
 844:Core/Src/lis3dh_driver.c ****         }
 2250              		.loc 1 844 18 is_stmt 0 view .LVU599
 2251 007e 0123     		movs	r3, #1
 2252 0080 E7E7     		b	.L148
 2253              	.L165:
 835:Core/Src/lis3dh_driver.c ****           return MEMS_SUCCESS;
 2254              		.loc 1 835 11 is_stmt 1 view .LVU600
 835:Core/Src/lis3dh_driver.c ****           return MEMS_SUCCESS;
 2255              		.loc 1 835 16 is_stmt 0 view .LVU601
 2256 0082 2423     		movs	r3, #36
 2257 0084 2370     		strb	r3, [r4]
 836:Core/Src/lis3dh_driver.c ****         }
 2258              		.loc 1 836 11 is_stmt 1 view .LVU602
 836:Core/Src/lis3dh_driver.c ****         }
ARM GAS  /tmp/ccQFuNLL.s 			page 61


 2259              		.loc 1 836 18 is_stmt 0 view .LVU603
 2260 0086 0123     		movs	r3, #1
 2261 0088 E3E7     		b	.L148
 2262              	.L166:
 839:Core/Src/lis3dh_driver.c ****           return MEMS_SUCCESS;
 2263              		.loc 1 839 11 is_stmt 1 view .LVU604
 839:Core/Src/lis3dh_driver.c ****           return MEMS_SUCCESS;
 2264              		.loc 1 839 16 is_stmt 0 view .LVU605
 2265 008a 2223     		movs	r3, #34
 2266 008c 2370     		strb	r3, [r4]
 840:Core/Src/lis3dh_driver.c ****         }
 2267              		.loc 1 840 11 is_stmt 1 view .LVU606
 840:Core/Src/lis3dh_driver.c ****         }
 2268              		.loc 1 840 18 is_stmt 0 view .LVU607
 2269 008e 0123     		movs	r3, #1
 2270 0090 DFE7     		b	.L148
 2271              	.L150:
 849:Core/Src/lis3dh_driver.c ****         if (value & LIS3DH_CLICK_Z) {
 2272              		.loc 1 849 7 is_stmt 1 view .LVU608
 849:Core/Src/lis3dh_driver.c ****         if (value & LIS3DH_CLICK_Z) {
 2273              		.loc 1 849 10 is_stmt 0 view .LVU609
 2274 0092 13F0080F 		tst	r3, #8
 2275 0096 14D0     		beq	.L156
 850:Core/Src/lis3dh_driver.c ****           *res = LIS3DH_SCLICK_Z_N;   
 2276              		.loc 1 850 9 is_stmt 1 view .LVU610
 850:Core/Src/lis3dh_driver.c ****           *res = LIS3DH_SCLICK_Z_N;   
 2277              		.loc 1 850 12 is_stmt 0 view .LVU611
 2278 0098 13F0040F 		tst	r3, #4
 2279 009c 09D1     		bne	.L167
 854:Core/Src/lis3dh_driver.c ****           *res = LIS3DH_SCLICK_Y_N;   
 2280              		.loc 1 854 9 is_stmt 1 view .LVU612
 854:Core/Src/lis3dh_driver.c ****           *res = LIS3DH_SCLICK_Y_N;   
 2281              		.loc 1 854 12 is_stmt 0 view .LVU613
 2282 009e 13F0020F 		tst	r3, #2
 2283 00a2 0AD1     		bne	.L168
 858:Core/Src/lis3dh_driver.c ****           *res = LIS3DH_SCLICK_X_N;   
 2284              		.loc 1 858 9 is_stmt 1 view .LVU614
 858:Core/Src/lis3dh_driver.c ****           *res = LIS3DH_SCLICK_X_N;   
 2285              		.loc 1 858 12 is_stmt 0 view .LVU615
 2286 00a4 13F00103 		ands	r3, r3, #1
 2287 00a8 D3D0     		beq	.L148
 859:Core/Src/lis3dh_driver.c ****           return MEMS_SUCCESS;
 2288              		.loc 1 859 11 is_stmt 1 view .LVU616
 859:Core/Src/lis3dh_driver.c ****           return MEMS_SUCCESS;
 2289              		.loc 1 859 16 is_stmt 0 view .LVU617
 2290 00aa 1923     		movs	r3, #25
 2291 00ac 2370     		strb	r3, [r4]
 860:Core/Src/lis3dh_driver.c ****         }
 2292              		.loc 1 860 11 is_stmt 1 view .LVU618
 860:Core/Src/lis3dh_driver.c ****         }
 2293              		.loc 1 860 18 is_stmt 0 view .LVU619
 2294 00ae 0123     		movs	r3, #1
 2295 00b0 CFE7     		b	.L148
 2296              	.L167:
 851:Core/Src/lis3dh_driver.c ****           return MEMS_SUCCESS;
 2297              		.loc 1 851 11 is_stmt 1 view .LVU620
 851:Core/Src/lis3dh_driver.c ****           return MEMS_SUCCESS;
ARM GAS  /tmp/ccQFuNLL.s 			page 62


 2298              		.loc 1 851 16 is_stmt 0 view .LVU621
 2299 00b2 1C23     		movs	r3, #28
 2300 00b4 2370     		strb	r3, [r4]
 852:Core/Src/lis3dh_driver.c ****         }
 2301              		.loc 1 852 11 is_stmt 1 view .LVU622
 852:Core/Src/lis3dh_driver.c ****         }
 2302              		.loc 1 852 18 is_stmt 0 view .LVU623
 2303 00b6 0123     		movs	r3, #1
 2304 00b8 CBE7     		b	.L148
 2305              	.L168:
 855:Core/Src/lis3dh_driver.c ****           return MEMS_SUCCESS;
 2306              		.loc 1 855 11 is_stmt 1 view .LVU624
 855:Core/Src/lis3dh_driver.c ****           return MEMS_SUCCESS;
 2307              		.loc 1 855 16 is_stmt 0 view .LVU625
 2308 00ba 1A23     		movs	r3, #26
 2309 00bc 2370     		strb	r3, [r4]
 856:Core/Src/lis3dh_driver.c ****         }
 2310              		.loc 1 856 11 is_stmt 1 view .LVU626
 856:Core/Src/lis3dh_driver.c ****         }
 2311              		.loc 1 856 18 is_stmt 0 view .LVU627
 2312 00be 0123     		movs	r3, #1
 2313 00c0 C7E7     		b	.L148
 2314              	.L156:
 864:Core/Src/lis3dh_driver.c ****           *res = LIS3DH_SCLICK_Z_P;   
 2315              		.loc 1 864 9 is_stmt 1 view .LVU628
 864:Core/Src/lis3dh_driver.c ****           *res = LIS3DH_SCLICK_Z_P;   
 2316              		.loc 1 864 12 is_stmt 0 view .LVU629
 2317 00c2 13F0040F 		tst	r3, #4
 2318 00c6 09D1     		bne	.L169
 868:Core/Src/lis3dh_driver.c ****           *res = LIS3DH_SCLICK_Y_P;   
 2319              		.loc 1 868 9 is_stmt 1 view .LVU630
 868:Core/Src/lis3dh_driver.c ****           *res = LIS3DH_SCLICK_Y_P;   
 2320              		.loc 1 868 12 is_stmt 0 view .LVU631
 2321 00c8 13F0020F 		tst	r3, #2
 2322 00cc 0AD1     		bne	.L170
 872:Core/Src/lis3dh_driver.c ****           *res = LIS3DH_SCLICK_X_P;   
 2323              		.loc 1 872 9 is_stmt 1 view .LVU632
 872:Core/Src/lis3dh_driver.c ****           *res = LIS3DH_SCLICK_X_P;   
 2324              		.loc 1 872 12 is_stmt 0 view .LVU633
 2325 00ce 13F00103 		ands	r3, r3, #1
 2326 00d2 BED0     		beq	.L148
 873:Core/Src/lis3dh_driver.c ****           return MEMS_SUCCESS;
 2327              		.loc 1 873 11 is_stmt 1 view .LVU634
 873:Core/Src/lis3dh_driver.c ****           return MEMS_SUCCESS;
 2328              		.loc 1 873 16 is_stmt 0 view .LVU635
 2329 00d4 1123     		movs	r3, #17
 2330 00d6 2370     		strb	r3, [r4]
 874:Core/Src/lis3dh_driver.c ****         }
 2331              		.loc 1 874 11 is_stmt 1 view .LVU636
 874:Core/Src/lis3dh_driver.c ****         }
 2332              		.loc 1 874 18 is_stmt 0 view .LVU637
 2333 00d8 0123     		movs	r3, #1
 2334 00da BAE7     		b	.L148
 2335              	.L169:
 865:Core/Src/lis3dh_driver.c ****           return MEMS_SUCCESS;
 2336              		.loc 1 865 11 is_stmt 1 view .LVU638
 865:Core/Src/lis3dh_driver.c ****           return MEMS_SUCCESS;
ARM GAS  /tmp/ccQFuNLL.s 			page 63


 2337              		.loc 1 865 16 is_stmt 0 view .LVU639
 2338 00dc 1423     		movs	r3, #20
 2339 00de 2370     		strb	r3, [r4]
 866:Core/Src/lis3dh_driver.c ****         }
 2340              		.loc 1 866 11 is_stmt 1 view .LVU640
 866:Core/Src/lis3dh_driver.c ****         }
 2341              		.loc 1 866 18 is_stmt 0 view .LVU641
 2342 00e0 0123     		movs	r3, #1
 2343 00e2 B6E7     		b	.L148
 2344              	.L170:
 869:Core/Src/lis3dh_driver.c ****           return MEMS_SUCCESS;
 2345              		.loc 1 869 11 is_stmt 1 view .LVU642
 869:Core/Src/lis3dh_driver.c ****           return MEMS_SUCCESS;
 2346              		.loc 1 869 16 is_stmt 0 view .LVU643
 2347 00e4 1223     		movs	r3, #18
 2348 00e6 2370     		strb	r3, [r4]
 870:Core/Src/lis3dh_driver.c ****         }
 2349              		.loc 1 870 11 is_stmt 1 view .LVU644
 870:Core/Src/lis3dh_driver.c ****         }
 2350              		.loc 1 870 18 is_stmt 0 view .LVU645
 2351 00e8 0123     		movs	r3, #1
 2352 00ea B2E7     		b	.L148
 2353              		.cfi_endproc
 2354              	.LFE27:
 2356              		.section	.text.LIS3DH_Int1LatchEnable,"ax",%progbits
 2357              		.align	1
 2358              		.global	LIS3DH_Int1LatchEnable
 2359              		.syntax unified
 2360              		.thumb
 2361              		.thumb_func
 2363              	LIS3DH_Int1LatchEnable:
 2364              	.LVL121:
 2365              	.LFB28:
 881:Core/Src/lis3dh_driver.c **** 
 882:Core/Src/lis3dh_driver.c **** 
 883:Core/Src/lis3dh_driver.c **** /*******************************************************************************
 884:Core/Src/lis3dh_driver.c **** * Function Name  : LIS3DH_Int1LatchEnable
 885:Core/Src/lis3dh_driver.c **** * Description    : Enable Interrupt 1 Latching function
 886:Core/Src/lis3dh_driver.c **** * Input          : ENABLE/DISABLE
 887:Core/Src/lis3dh_driver.c **** * Output         : None
 888:Core/Src/lis3dh_driver.c **** * Return         : Status [MEMS_ERROR, MEMS_SUCCESS]
 889:Core/Src/lis3dh_driver.c **** *******************************************************************************/
 890:Core/Src/lis3dh_driver.c **** status_t LIS3DH_Int1LatchEnable(State_t latch) {
 2366              		.loc 1 890 48 is_stmt 1 view -0
 2367              		.cfi_startproc
 2368              		@ args = 0, pretend = 0, frame = 8
 2369              		@ frame_needed = 0, uses_anonymous_args = 0
 2370              		.loc 1 890 48 is_stmt 0 view .LVU647
 2371 0000 10B5     		push	{r4, lr}
 2372              	.LCFI96:
 2373              		.cfi_def_cfa_offset 8
 2374              		.cfi_offset 4, -8
 2375              		.cfi_offset 14, -4
 2376 0002 82B0     		sub	sp, sp, #8
 2377              	.LCFI97:
 2378              		.cfi_def_cfa_offset 16
 2379 0004 0446     		mov	r4, r0
ARM GAS  /tmp/ccQFuNLL.s 			page 64


 891:Core/Src/lis3dh_driver.c ****   u8_t value;
 2380              		.loc 1 891 3 is_stmt 1 view .LVU648
 892:Core/Src/lis3dh_driver.c ****   
 893:Core/Src/lis3dh_driver.c ****   if( !LIS3DH_ReadReg(LIS3DH_CTRL_REG5, &value) )
 2381              		.loc 1 893 3 view .LVU649
 2382              		.loc 1 893 8 is_stmt 0 view .LVU650
 2383 0006 0DF10701 		add	r1, sp, #7
 2384 000a 2420     		movs	r0, #36
 2385              	.LVL122:
 2386              		.loc 1 893 8 view .LVU651
 2387 000c FFF7FEFF 		bl	LIS3DH_ReadReg
 2388              	.LVL123:
 2389              		.loc 1 893 5 view .LVU652
 2390 0010 08B9     		cbnz	r0, .L174
 2391              	.L172:
 894:Core/Src/lis3dh_driver.c ****     return MEMS_ERROR;
 895:Core/Src/lis3dh_driver.c ****   
 896:Core/Src/lis3dh_driver.c ****   value &= 0xF7;
 897:Core/Src/lis3dh_driver.c ****   value |= latch<<LIS3DH_LIR_INT1;
 898:Core/Src/lis3dh_driver.c ****   
 899:Core/Src/lis3dh_driver.c ****   if( !LIS3DH_WriteReg(LIS3DH_CTRL_REG5, value) )
 900:Core/Src/lis3dh_driver.c ****     return MEMS_ERROR;
 901:Core/Src/lis3dh_driver.c ****   
 902:Core/Src/lis3dh_driver.c ****   return MEMS_SUCCESS;
 903:Core/Src/lis3dh_driver.c **** }
 2392              		.loc 1 903 1 view .LVU653
 2393 0012 02B0     		add	sp, sp, #8
 2394              	.LCFI98:
 2395              		.cfi_remember_state
 2396              		.cfi_def_cfa_offset 8
 2397              		@ sp needed
 2398 0014 10BD     		pop	{r4, pc}
 2399              	.L174:
 2400              	.LCFI99:
 2401              		.cfi_restore_state
 896:Core/Src/lis3dh_driver.c ****   value |= latch<<LIS3DH_LIR_INT1;
 2402              		.loc 1 896 3 is_stmt 1 view .LVU654
 896:Core/Src/lis3dh_driver.c ****   value |= latch<<LIS3DH_LIR_INT1;
 2403              		.loc 1 896 9 is_stmt 0 view .LVU655
 2404 0016 9DF80710 		ldrb	r1, [sp, #7]	@ zero_extendqisi2
 2405 001a 01F0F701 		and	r1, r1, #247
 2406 001e 8DF80710 		strb	r1, [sp, #7]
 897:Core/Src/lis3dh_driver.c ****   
 2407              		.loc 1 897 3 is_stmt 1 view .LVU656
 897:Core/Src/lis3dh_driver.c ****   
 2408              		.loc 1 897 9 is_stmt 0 view .LVU657
 2409 0022 41EAC401 		orr	r1, r1, r4, lsl #3
 2410 0026 C9B2     		uxtb	r1, r1
 2411 0028 8DF80710 		strb	r1, [sp, #7]
 899:Core/Src/lis3dh_driver.c ****     return MEMS_ERROR;
 2412              		.loc 1 899 3 is_stmt 1 view .LVU658
 899:Core/Src/lis3dh_driver.c ****     return MEMS_ERROR;
 2413              		.loc 1 899 8 is_stmt 0 view .LVU659
 2414 002c 2420     		movs	r0, #36
 2415 002e FFF7FEFF 		bl	LIS3DH_WriteReg
 2416              	.LVL124:
 899:Core/Src/lis3dh_driver.c ****     return MEMS_ERROR;
ARM GAS  /tmp/ccQFuNLL.s 			page 65


 2417              		.loc 1 899 5 view .LVU660
 2418 0032 0028     		cmp	r0, #0
 2419 0034 EDD0     		beq	.L172
 902:Core/Src/lis3dh_driver.c **** }
 2420              		.loc 1 902 10 view .LVU661
 2421 0036 0120     		movs	r0, #1
 2422 0038 EBE7     		b	.L172
 2423              		.cfi_endproc
 2424              	.LFE28:
 2426              		.section	.text.LIS3DH_ResetInt1Latch,"ax",%progbits
 2427              		.align	1
 2428              		.global	LIS3DH_ResetInt1Latch
 2429              		.syntax unified
 2430              		.thumb
 2431              		.thumb_func
 2433              	LIS3DH_ResetInt1Latch:
 2434              	.LFB29:
 904:Core/Src/lis3dh_driver.c **** 
 905:Core/Src/lis3dh_driver.c **** 
 906:Core/Src/lis3dh_driver.c **** /*******************************************************************************
 907:Core/Src/lis3dh_driver.c **** * Function Name  : LIS3DH_ResetInt1Latch
 908:Core/Src/lis3dh_driver.c **** * Description    : Reset Interrupt 1 Latching function
 909:Core/Src/lis3dh_driver.c **** * Input          : None
 910:Core/Src/lis3dh_driver.c **** * Output         : None
 911:Core/Src/lis3dh_driver.c **** * Return         : Status [MEMS_ERROR, MEMS_SUCCESS]
 912:Core/Src/lis3dh_driver.c **** *******************************************************************************/
 913:Core/Src/lis3dh_driver.c **** status_t LIS3DH_ResetInt1Latch(void) {
 2435              		.loc 1 913 38 is_stmt 1 view -0
 2436              		.cfi_startproc
 2437              		@ args = 0, pretend = 0, frame = 8
 2438              		@ frame_needed = 0, uses_anonymous_args = 0
 2439 0000 00B5     		push	{lr}
 2440              	.LCFI100:
 2441              		.cfi_def_cfa_offset 4
 2442              		.cfi_offset 14, -4
 2443 0002 83B0     		sub	sp, sp, #12
 2444              	.LCFI101:
 2445              		.cfi_def_cfa_offset 16
 914:Core/Src/lis3dh_driver.c ****   u8_t value;
 2446              		.loc 1 914 3 view .LVU663
 915:Core/Src/lis3dh_driver.c ****   
 916:Core/Src/lis3dh_driver.c ****   if( !LIS3DH_ReadReg(LIS3DH_INT1_SRC, &value) )
 2447              		.loc 1 916 3 view .LVU664
 2448              		.loc 1 916 8 is_stmt 0 view .LVU665
 2449 0004 0DF10701 		add	r1, sp, #7
 2450 0008 3120     		movs	r0, #49
 2451 000a FFF7FEFF 		bl	LIS3DH_ReadReg
 2452              	.LVL125:
 2453              		.loc 1 916 5 view .LVU666
 2454 000e 00B1     		cbz	r0, .L176
 917:Core/Src/lis3dh_driver.c ****     return MEMS_ERROR;
 918:Core/Src/lis3dh_driver.c ****   
 919:Core/Src/lis3dh_driver.c ****   return MEMS_SUCCESS;
 2455              		.loc 1 919 10 view .LVU667
 2456 0010 0120     		movs	r0, #1
 2457              	.L176:
 920:Core/Src/lis3dh_driver.c **** }
ARM GAS  /tmp/ccQFuNLL.s 			page 66


 2458              		.loc 1 920 1 view .LVU668
 2459 0012 03B0     		add	sp, sp, #12
 2460              	.LCFI102:
 2461              		.cfi_def_cfa_offset 4
 2462              		@ sp needed
 2463 0014 5DF804FB 		ldr	pc, [sp], #4
 2464              		.cfi_endproc
 2465              	.LFE29:
 2467              		.section	.text.LIS3DH_SetIntConfiguration,"ax",%progbits
 2468              		.align	1
 2469              		.global	LIS3DH_SetIntConfiguration
 2470              		.syntax unified
 2471              		.thumb
 2472              		.thumb_func
 2474              	LIS3DH_SetIntConfiguration:
 2475              	.LVL126:
 2476              	.LFB30:
 921:Core/Src/lis3dh_driver.c **** 
 922:Core/Src/lis3dh_driver.c **** 
 923:Core/Src/lis3dh_driver.c **** /*******************************************************************************
 924:Core/Src/lis3dh_driver.c **** * Function Name  : LIS3DH_SetIntConfiguration
 925:Core/Src/lis3dh_driver.c **** * Description    : Interrupt 1 Configuration (without LIS3DH_6D_INT)
 926:Core/Src/lis3dh_driver.c **** * Input          : LIS3DH_INT1_AND/OR | LIS3DH_INT1_ZHIE_ENABLE/DISABLE | LIS3DH_INT1_ZLIE_ENABLE/D
 927:Core/Src/lis3dh_driver.c **** * Output         : None
 928:Core/Src/lis3dh_driver.c **** * Note           : You MUST use all input variable in the argument, as example
 929:Core/Src/lis3dh_driver.c **** * Return         : Status [MEMS_ERROR, MEMS_SUCCESS]
 930:Core/Src/lis3dh_driver.c **** *******************************************************************************/
 931:Core/Src/lis3dh_driver.c **** status_t LIS3DH_SetIntConfiguration(LIS3DH_Int1Conf_t ic) {
 2477              		.loc 1 931 59 is_stmt 1 view -0
 2478              		.cfi_startproc
 2479              		@ args = 0, pretend = 0, frame = 8
 2480              		@ frame_needed = 0, uses_anonymous_args = 0
 2481              		.loc 1 931 59 is_stmt 0 view .LVU670
 2482 0000 10B5     		push	{r4, lr}
 2483              	.LCFI103:
 2484              		.cfi_def_cfa_offset 8
 2485              		.cfi_offset 4, -8
 2486              		.cfi_offset 14, -4
 2487 0002 82B0     		sub	sp, sp, #8
 2488              	.LCFI104:
 2489              		.cfi_def_cfa_offset 16
 2490 0004 0446     		mov	r4, r0
 932:Core/Src/lis3dh_driver.c ****   u8_t value;
 2491              		.loc 1 932 3 is_stmt 1 view .LVU671
 933:Core/Src/lis3dh_driver.c ****   
 934:Core/Src/lis3dh_driver.c ****   if( !LIS3DH_ReadReg(LIS3DH_INT1_CFG, &value) )
 2492              		.loc 1 934 3 view .LVU672
 2493              		.loc 1 934 8 is_stmt 0 view .LVU673
 2494 0006 0DF10701 		add	r1, sp, #7
 2495 000a 3020     		movs	r0, #48
 2496              	.LVL127:
 2497              		.loc 1 934 8 view .LVU674
 2498 000c FFF7FEFF 		bl	LIS3DH_ReadReg
 2499              	.LVL128:
 2500              		.loc 1 934 5 view .LVU675
 2501 0010 08B9     		cbnz	r0, .L181
 2502              	.L179:
ARM GAS  /tmp/ccQFuNLL.s 			page 67


 935:Core/Src/lis3dh_driver.c ****     return MEMS_ERROR;
 936:Core/Src/lis3dh_driver.c ****   
 937:Core/Src/lis3dh_driver.c ****   value &= 0x40; 
 938:Core/Src/lis3dh_driver.c ****   value |= ic;
 939:Core/Src/lis3dh_driver.c ****   
 940:Core/Src/lis3dh_driver.c ****   if( !LIS3DH_WriteReg(LIS3DH_INT1_CFG, value) )
 941:Core/Src/lis3dh_driver.c ****     return MEMS_ERROR;
 942:Core/Src/lis3dh_driver.c ****   
 943:Core/Src/lis3dh_driver.c ****   return MEMS_SUCCESS;
 944:Core/Src/lis3dh_driver.c **** } 
 2503              		.loc 1 944 1 view .LVU676
 2504 0012 02B0     		add	sp, sp, #8
 2505              	.LCFI105:
 2506              		.cfi_remember_state
 2507              		.cfi_def_cfa_offset 8
 2508              		@ sp needed
 2509 0014 10BD     		pop	{r4, pc}
 2510              	.L181:
 2511              	.LCFI106:
 2512              		.cfi_restore_state
 937:Core/Src/lis3dh_driver.c ****   value |= ic;
 2513              		.loc 1 937 3 is_stmt 1 view .LVU677
 937:Core/Src/lis3dh_driver.c ****   value |= ic;
 2514              		.loc 1 937 9 is_stmt 0 view .LVU678
 2515 0016 9DF80710 		ldrb	r1, [sp, #7]	@ zero_extendqisi2
 2516 001a 01F04001 		and	r1, r1, #64
 2517 001e 8DF80710 		strb	r1, [sp, #7]
 938:Core/Src/lis3dh_driver.c ****   
 2518              		.loc 1 938 3 is_stmt 1 view .LVU679
 938:Core/Src/lis3dh_driver.c ****   
 2519              		.loc 1 938 9 is_stmt 0 view .LVU680
 2520 0022 2143     		orrs	r1, r1, r4
 2521 0024 8DF80710 		strb	r1, [sp, #7]
 940:Core/Src/lis3dh_driver.c ****     return MEMS_ERROR;
 2522              		.loc 1 940 3 is_stmt 1 view .LVU681
 940:Core/Src/lis3dh_driver.c ****     return MEMS_ERROR;
 2523              		.loc 1 940 8 is_stmt 0 view .LVU682
 2524 0028 3020     		movs	r0, #48
 2525 002a FFF7FEFF 		bl	LIS3DH_WriteReg
 2526              	.LVL129:
 940:Core/Src/lis3dh_driver.c ****     return MEMS_ERROR;
 2527              		.loc 1 940 5 view .LVU683
 2528 002e 0028     		cmp	r0, #0
 2529 0030 EFD0     		beq	.L179
 943:Core/Src/lis3dh_driver.c **** } 
 2530              		.loc 1 943 10 view .LVU684
 2531 0032 0120     		movs	r0, #1
 2532 0034 EDE7     		b	.L179
 2533              		.cfi_endproc
 2534              	.LFE30:
 2536              		.section	.text.LIS3DH_SetIntMode,"ax",%progbits
 2537              		.align	1
 2538              		.global	LIS3DH_SetIntMode
 2539              		.syntax unified
 2540              		.thumb
 2541              		.thumb_func
 2543              	LIS3DH_SetIntMode:
ARM GAS  /tmp/ccQFuNLL.s 			page 68


 2544              	.LVL130:
 2545              	.LFB31:
 945:Core/Src/lis3dh_driver.c **** 
 946:Core/Src/lis3dh_driver.c ****      
 947:Core/Src/lis3dh_driver.c **** /*******************************************************************************
 948:Core/Src/lis3dh_driver.c **** * Function Name  : LIS3DH_SetIntMode
 949:Core/Src/lis3dh_driver.c **** * Description    : Interrupt 1 Configuration mode (OR, 6D Movement, AND, 6D Position)
 950:Core/Src/lis3dh_driver.c **** * Input          : LIS3DH_INT_MODE_OR, LIS3DH_INT_MODE_6D_MOVEMENT, LIS3DH_INT_MODE_AND, 
 951:Core/Src/lis3dh_driver.c **** 				   LIS3DH_INT_MODE_6D_POSITION
 952:Core/Src/lis3dh_driver.c **** * Output         : None
 953:Core/Src/lis3dh_driver.c **** * Return         : Status [MEMS_ERROR, MEMS_SUCCESS]
 954:Core/Src/lis3dh_driver.c **** *******************************************************************************/
 955:Core/Src/lis3dh_driver.c **** status_t LIS3DH_SetIntMode(LIS3DH_Int1Mode_t int_mode) {
 2546              		.loc 1 955 56 is_stmt 1 view -0
 2547              		.cfi_startproc
 2548              		@ args = 0, pretend = 0, frame = 8
 2549              		@ frame_needed = 0, uses_anonymous_args = 0
 2550              		.loc 1 955 56 is_stmt 0 view .LVU686
 2551 0000 10B5     		push	{r4, lr}
 2552              	.LCFI107:
 2553              		.cfi_def_cfa_offset 8
 2554              		.cfi_offset 4, -8
 2555              		.cfi_offset 14, -4
 2556 0002 82B0     		sub	sp, sp, #8
 2557              	.LCFI108:
 2558              		.cfi_def_cfa_offset 16
 2559 0004 0446     		mov	r4, r0
 956:Core/Src/lis3dh_driver.c ****   u8_t value;
 2560              		.loc 1 956 3 is_stmt 1 view .LVU687
 957:Core/Src/lis3dh_driver.c ****   
 958:Core/Src/lis3dh_driver.c ****   if( !LIS3DH_ReadReg(LIS3DH_INT1_CFG, &value) )
 2561              		.loc 1 958 3 view .LVU688
 2562              		.loc 1 958 8 is_stmt 0 view .LVU689
 2563 0006 0DF10701 		add	r1, sp, #7
 2564 000a 3020     		movs	r0, #48
 2565              	.LVL131:
 2566              		.loc 1 958 8 view .LVU690
 2567 000c FFF7FEFF 		bl	LIS3DH_ReadReg
 2568              	.LVL132:
 2569              		.loc 1 958 5 view .LVU691
 2570 0010 08B9     		cbnz	r0, .L185
 2571              	.L183:
 959:Core/Src/lis3dh_driver.c ****     return MEMS_ERROR;
 960:Core/Src/lis3dh_driver.c ****   
 961:Core/Src/lis3dh_driver.c ****   value &= 0x3F; 
 962:Core/Src/lis3dh_driver.c ****   value |= (int_mode<<LIS3DH_INT_6D);
 963:Core/Src/lis3dh_driver.c ****   
 964:Core/Src/lis3dh_driver.c ****   if( !LIS3DH_WriteReg(LIS3DH_INT1_CFG, value) )
 965:Core/Src/lis3dh_driver.c ****     return MEMS_ERROR;
 966:Core/Src/lis3dh_driver.c ****   
 967:Core/Src/lis3dh_driver.c ****   return MEMS_SUCCESS;
 968:Core/Src/lis3dh_driver.c **** }
 2572              		.loc 1 968 1 view .LVU692
 2573 0012 02B0     		add	sp, sp, #8
 2574              	.LCFI109:
 2575              		.cfi_remember_state
 2576              		.cfi_def_cfa_offset 8
ARM GAS  /tmp/ccQFuNLL.s 			page 69


 2577              		@ sp needed
 2578 0014 10BD     		pop	{r4, pc}
 2579              	.L185:
 2580              	.LCFI110:
 2581              		.cfi_restore_state
 961:Core/Src/lis3dh_driver.c ****   value |= (int_mode<<LIS3DH_INT_6D);
 2582              		.loc 1 961 3 is_stmt 1 view .LVU693
 961:Core/Src/lis3dh_driver.c ****   value |= (int_mode<<LIS3DH_INT_6D);
 2583              		.loc 1 961 9 is_stmt 0 view .LVU694
 2584 0016 9DF80710 		ldrb	r1, [sp, #7]	@ zero_extendqisi2
 2585 001a 01F03F01 		and	r1, r1, #63
 2586 001e 8DF80710 		strb	r1, [sp, #7]
 962:Core/Src/lis3dh_driver.c ****   
 2587              		.loc 1 962 3 is_stmt 1 view .LVU695
 962:Core/Src/lis3dh_driver.c ****   
 2588              		.loc 1 962 9 is_stmt 0 view .LVU696
 2589 0022 41EA8411 		orr	r1, r1, r4, lsl #6
 2590 0026 C9B2     		uxtb	r1, r1
 2591 0028 8DF80710 		strb	r1, [sp, #7]
 964:Core/Src/lis3dh_driver.c ****     return MEMS_ERROR;
 2592              		.loc 1 964 3 is_stmt 1 view .LVU697
 964:Core/Src/lis3dh_driver.c ****     return MEMS_ERROR;
 2593              		.loc 1 964 8 is_stmt 0 view .LVU698
 2594 002c 3020     		movs	r0, #48
 2595 002e FFF7FEFF 		bl	LIS3DH_WriteReg
 2596              	.LVL133:
 964:Core/Src/lis3dh_driver.c ****     return MEMS_ERROR;
 2597              		.loc 1 964 5 view .LVU699
 2598 0032 0028     		cmp	r0, #0
 2599 0034 EDD0     		beq	.L183
 967:Core/Src/lis3dh_driver.c **** }
 2600              		.loc 1 967 10 view .LVU700
 2601 0036 0120     		movs	r0, #1
 2602 0038 EBE7     		b	.L183
 2603              		.cfi_endproc
 2604              	.LFE31:
 2606              		.section	.text.LIS3DH_SetInt6D4DConfiguration,"ax",%progbits
 2607              		.align	1
 2608              		.global	LIS3DH_SetInt6D4DConfiguration
 2609              		.syntax unified
 2610              		.thumb
 2611              		.thumb_func
 2613              	LIS3DH_SetInt6D4DConfiguration:
 2614              	.LVL134:
 2615              	.LFB32:
 969:Core/Src/lis3dh_driver.c **** 
 970:Core/Src/lis3dh_driver.c ****     
 971:Core/Src/lis3dh_driver.c **** /*******************************************************************************
 972:Core/Src/lis3dh_driver.c **** * Function Name  : LIS3DH_SetInt6D4DConfiguration
 973:Core/Src/lis3dh_driver.c **** * Description    : 6D, 4D Interrupt Configuration
 974:Core/Src/lis3dh_driver.c **** * Input          : LIS3DH_INT1_6D_ENABLE, LIS3DH_INT1_4D_ENABLE, LIS3DH_INT1_6D_4D_DISABLE
 975:Core/Src/lis3dh_driver.c **** * Output         : None
 976:Core/Src/lis3dh_driver.c **** * Return         : Status [MEMS_ERROR, MEMS_SUCCESS]
 977:Core/Src/lis3dh_driver.c **** *******************************************************************************/
 978:Core/Src/lis3dh_driver.c **** status_t LIS3DH_SetInt6D4DConfiguration(LIS3DH_INT_6D_4D_t ic) {
 2616              		.loc 1 978 64 is_stmt 1 view -0
 2617              		.cfi_startproc
ARM GAS  /tmp/ccQFuNLL.s 			page 70


 2618              		@ args = 0, pretend = 0, frame = 8
 2619              		@ frame_needed = 0, uses_anonymous_args = 0
 2620              		.loc 1 978 64 is_stmt 0 view .LVU702
 2621 0000 10B5     		push	{r4, lr}
 2622              	.LCFI111:
 2623              		.cfi_def_cfa_offset 8
 2624              		.cfi_offset 4, -8
 2625              		.cfi_offset 14, -4
 2626 0002 82B0     		sub	sp, sp, #8
 2627              	.LCFI112:
 2628              		.cfi_def_cfa_offset 16
 2629 0004 0446     		mov	r4, r0
 979:Core/Src/lis3dh_driver.c ****   u8_t value;
 2630              		.loc 1 979 3 is_stmt 1 view .LVU703
 980:Core/Src/lis3dh_driver.c ****   u8_t value2;
 2631              		.loc 1 980 3 view .LVU704
 981:Core/Src/lis3dh_driver.c ****   
 982:Core/Src/lis3dh_driver.c ****   if( !LIS3DH_ReadReg(LIS3DH_INT1_CFG, &value) )
 2632              		.loc 1 982 3 view .LVU705
 2633              		.loc 1 982 8 is_stmt 0 view .LVU706
 2634 0006 0DF10701 		add	r1, sp, #7
 2635 000a 3020     		movs	r0, #48
 2636              	.LVL135:
 2637              		.loc 1 982 8 view .LVU707
 2638 000c FFF7FEFF 		bl	LIS3DH_ReadReg
 2639              	.LVL136:
 2640              		.loc 1 982 5 view .LVU708
 2641 0010 0346     		mov	r3, r0
 2642 0012 10B9     		cbnz	r0, .L192
 2643              	.L187:
 983:Core/Src/lis3dh_driver.c ****     return MEMS_ERROR;
 984:Core/Src/lis3dh_driver.c ****   if( !LIS3DH_ReadReg(LIS3DH_CTRL_REG5, &value2) )
 985:Core/Src/lis3dh_driver.c ****     return MEMS_ERROR;
 986:Core/Src/lis3dh_driver.c ****   
 987:Core/Src/lis3dh_driver.c ****   if(ic == LIS3DH_INT1_6D_ENABLE){
 988:Core/Src/lis3dh_driver.c ****     value &= 0xBF; 
 989:Core/Src/lis3dh_driver.c ****     value |= (MEMS_ENABLE<<LIS3DH_INT_6D);
 990:Core/Src/lis3dh_driver.c ****     value2 &= 0xFB; 
 991:Core/Src/lis3dh_driver.c ****     value2 |= (MEMS_DISABLE<<LIS3DH_D4D_INT1);
 992:Core/Src/lis3dh_driver.c ****   }
 993:Core/Src/lis3dh_driver.c ****   
 994:Core/Src/lis3dh_driver.c ****   if(ic == LIS3DH_INT1_4D_ENABLE){
 995:Core/Src/lis3dh_driver.c ****     value &= 0xBF; 
 996:Core/Src/lis3dh_driver.c ****     value |= (MEMS_ENABLE<<LIS3DH_INT_6D);
 997:Core/Src/lis3dh_driver.c ****     value2 &= 0xFB; 
 998:Core/Src/lis3dh_driver.c ****     value2 |= (MEMS_ENABLE<<LIS3DH_D4D_INT1);
 999:Core/Src/lis3dh_driver.c ****   }
1000:Core/Src/lis3dh_driver.c ****   
1001:Core/Src/lis3dh_driver.c ****   if(ic == LIS3DH_INT1_6D_4D_DISABLE){
1002:Core/Src/lis3dh_driver.c ****     value &= 0xBF; 
1003:Core/Src/lis3dh_driver.c ****     value |= (MEMS_DISABLE<<LIS3DH_INT_6D);
1004:Core/Src/lis3dh_driver.c ****     value2 &= 0xFB; 
1005:Core/Src/lis3dh_driver.c ****     value2 |= (MEMS_DISABLE<<LIS3DH_D4D_INT1);
1006:Core/Src/lis3dh_driver.c ****   }
1007:Core/Src/lis3dh_driver.c ****   
1008:Core/Src/lis3dh_driver.c ****   if( !LIS3DH_WriteReg(LIS3DH_INT1_CFG, value) )
1009:Core/Src/lis3dh_driver.c ****     return MEMS_ERROR;
ARM GAS  /tmp/ccQFuNLL.s 			page 71


1010:Core/Src/lis3dh_driver.c ****   if( !LIS3DH_WriteReg(LIS3DH_CTRL_REG5, value2) )
1011:Core/Src/lis3dh_driver.c ****     return MEMS_ERROR;
1012:Core/Src/lis3dh_driver.c ****   
1013:Core/Src/lis3dh_driver.c ****   return MEMS_SUCCESS;
1014:Core/Src/lis3dh_driver.c **** }
 2644              		.loc 1 1014 1 view .LVU709
 2645 0014 1846     		mov	r0, r3
 2646 0016 02B0     		add	sp, sp, #8
 2647              	.LCFI113:
 2648              		.cfi_remember_state
 2649              		.cfi_def_cfa_offset 8
 2650              		@ sp needed
 2651 0018 10BD     		pop	{r4, pc}
 2652              	.L192:
 2653              	.LCFI114:
 2654              		.cfi_restore_state
 984:Core/Src/lis3dh_driver.c ****     return MEMS_ERROR;
 2655              		.loc 1 984 3 is_stmt 1 view .LVU710
 984:Core/Src/lis3dh_driver.c ****     return MEMS_ERROR;
 2656              		.loc 1 984 8 is_stmt 0 view .LVU711
 2657 001a 0DF10601 		add	r1, sp, #6
 2658 001e 2420     		movs	r0, #36
 2659 0020 FFF7FEFF 		bl	LIS3DH_ReadReg
 2660              	.LVL137:
 984:Core/Src/lis3dh_driver.c ****     return MEMS_ERROR;
 2661              		.loc 1 984 5 view .LVU712
 2662 0024 0346     		mov	r3, r0
 2663 0026 0028     		cmp	r0, #0
 2664 0028 F4D0     		beq	.L187
 987:Core/Src/lis3dh_driver.c ****     value &= 0xBF; 
 2665              		.loc 1 987 3 is_stmt 1 view .LVU713
 987:Core/Src/lis3dh_driver.c ****     value &= 0xBF; 
 2666              		.loc 1 987 5 is_stmt 0 view .LVU714
 2667 002a 012C     		cmp	r4, #1
 2668 002c 20D0     		beq	.L193
 2669              	.L188:
 994:Core/Src/lis3dh_driver.c ****     value &= 0xBF; 
 2670              		.loc 1 994 3 is_stmt 1 view .LVU715
 994:Core/Src/lis3dh_driver.c ****     value &= 0xBF; 
 2671              		.loc 1 994 5 is_stmt 0 view .LVU716
 2672 002e 022C     		cmp	r4, #2
 2673 0030 2FD0     		beq	.L194
 2674              	.L189:
1001:Core/Src/lis3dh_driver.c ****     value &= 0xBF; 
 2675              		.loc 1 1001 3 is_stmt 1 view .LVU717
1001:Core/Src/lis3dh_driver.c ****     value &= 0xBF; 
 2676              		.loc 1 1001 5 is_stmt 0 view .LVU718
 2677 0032 5CB9     		cbnz	r4, .L190
1002:Core/Src/lis3dh_driver.c ****     value |= (MEMS_DISABLE<<LIS3DH_INT_6D);
 2678              		.loc 1 1002 5 is_stmt 1 view .LVU719
1002:Core/Src/lis3dh_driver.c ****     value |= (MEMS_DISABLE<<LIS3DH_INT_6D);
 2679              		.loc 1 1002 11 is_stmt 0 view .LVU720
 2680 0034 9DF80730 		ldrb	r3, [sp, #7]	@ zero_extendqisi2
 2681 0038 23F04003 		bic	r3, r3, #64
 2682 003c 8DF80730 		strb	r3, [sp, #7]
1003:Core/Src/lis3dh_driver.c ****     value2 &= 0xFB; 
 2683              		.loc 1 1003 5 is_stmt 1 view .LVU721
ARM GAS  /tmp/ccQFuNLL.s 			page 72


1004:Core/Src/lis3dh_driver.c ****     value2 |= (MEMS_DISABLE<<LIS3DH_D4D_INT1);
 2684              		.loc 1 1004 5 view .LVU722
1004:Core/Src/lis3dh_driver.c ****     value2 |= (MEMS_DISABLE<<LIS3DH_D4D_INT1);
 2685              		.loc 1 1004 12 is_stmt 0 view .LVU723
 2686 0040 9DF80630 		ldrb	r3, [sp, #6]	@ zero_extendqisi2
 2687 0044 23F00403 		bic	r3, r3, #4
 2688 0048 8DF80630 		strb	r3, [sp, #6]
1005:Core/Src/lis3dh_driver.c ****   }
 2689              		.loc 1 1005 5 is_stmt 1 view .LVU724
 2690              	.L190:
1008:Core/Src/lis3dh_driver.c ****     return MEMS_ERROR;
 2691              		.loc 1 1008 3 view .LVU725
1008:Core/Src/lis3dh_driver.c ****     return MEMS_ERROR;
 2692              		.loc 1 1008 8 is_stmt 0 view .LVU726
 2693 004c 9DF80710 		ldrb	r1, [sp, #7]	@ zero_extendqisi2
 2694 0050 3020     		movs	r0, #48
 2695 0052 FFF7FEFF 		bl	LIS3DH_WriteReg
 2696              	.LVL138:
1008:Core/Src/lis3dh_driver.c ****     return MEMS_ERROR;
 2697              		.loc 1 1008 5 view .LVU727
 2698 0056 0346     		mov	r3, r0
 2699 0058 0028     		cmp	r0, #0
 2700 005a DBD0     		beq	.L187
1010:Core/Src/lis3dh_driver.c ****     return MEMS_ERROR;
 2701              		.loc 1 1010 3 is_stmt 1 view .LVU728
1010:Core/Src/lis3dh_driver.c ****     return MEMS_ERROR;
 2702              		.loc 1 1010 8 is_stmt 0 view .LVU729
 2703 005c 9DF80610 		ldrb	r1, [sp, #6]	@ zero_extendqisi2
 2704 0060 2420     		movs	r0, #36
 2705 0062 FFF7FEFF 		bl	LIS3DH_WriteReg
 2706              	.LVL139:
1010:Core/Src/lis3dh_driver.c ****     return MEMS_ERROR;
 2707              		.loc 1 1010 5 view .LVU730
 2708 0066 0346     		mov	r3, r0
 2709 0068 0028     		cmp	r0, #0
 2710 006a D3D0     		beq	.L187
1013:Core/Src/lis3dh_driver.c **** }
 2711              		.loc 1 1013 10 view .LVU731
 2712 006c 0123     		movs	r3, #1
 2713 006e D1E7     		b	.L187
 2714              	.L193:
 988:Core/Src/lis3dh_driver.c ****     value |= (MEMS_ENABLE<<LIS3DH_INT_6D);
 2715              		.loc 1 988 5 is_stmt 1 view .LVU732
 988:Core/Src/lis3dh_driver.c ****     value |= (MEMS_ENABLE<<LIS3DH_INT_6D);
 2716              		.loc 1 988 11 is_stmt 0 view .LVU733
 2717 0070 9DF80730 		ldrb	r3, [sp, #7]	@ zero_extendqisi2
 2718 0074 03F0BF03 		and	r3, r3, #191
 2719 0078 8DF80730 		strb	r3, [sp, #7]
 989:Core/Src/lis3dh_driver.c ****     value2 &= 0xFB; 
 2720              		.loc 1 989 5 is_stmt 1 view .LVU734
 989:Core/Src/lis3dh_driver.c ****     value2 &= 0xFB; 
 2721              		.loc 1 989 11 is_stmt 0 view .LVU735
 2722 007c 43F04003 		orr	r3, r3, #64
 2723 0080 8DF80730 		strb	r3, [sp, #7]
 990:Core/Src/lis3dh_driver.c ****     value2 |= (MEMS_DISABLE<<LIS3DH_D4D_INT1);
 2724              		.loc 1 990 5 is_stmt 1 view .LVU736
 990:Core/Src/lis3dh_driver.c ****     value2 |= (MEMS_DISABLE<<LIS3DH_D4D_INT1);
ARM GAS  /tmp/ccQFuNLL.s 			page 73


 2725              		.loc 1 990 12 is_stmt 0 view .LVU737
 2726 0084 9DF80630 		ldrb	r3, [sp, #6]	@ zero_extendqisi2
 2727 0088 23F00403 		bic	r3, r3, #4
 2728 008c 8DF80630 		strb	r3, [sp, #6]
 991:Core/Src/lis3dh_driver.c ****   }
 2729              		.loc 1 991 5 is_stmt 1 view .LVU738
 2730 0090 CDE7     		b	.L188
 2731              	.L194:
 995:Core/Src/lis3dh_driver.c ****     value |= (MEMS_ENABLE<<LIS3DH_INT_6D);
 2732              		.loc 1 995 5 view .LVU739
 995:Core/Src/lis3dh_driver.c ****     value |= (MEMS_ENABLE<<LIS3DH_INT_6D);
 2733              		.loc 1 995 11 is_stmt 0 view .LVU740
 2734 0092 9DF80730 		ldrb	r3, [sp, #7]	@ zero_extendqisi2
 2735 0096 03F0BF03 		and	r3, r3, #191
 2736 009a 8DF80730 		strb	r3, [sp, #7]
 996:Core/Src/lis3dh_driver.c ****     value2 &= 0xFB; 
 2737              		.loc 1 996 5 is_stmt 1 view .LVU741
 996:Core/Src/lis3dh_driver.c ****     value2 &= 0xFB; 
 2738              		.loc 1 996 11 is_stmt 0 view .LVU742
 2739 009e 43F04003 		orr	r3, r3, #64
 2740 00a2 8DF80730 		strb	r3, [sp, #7]
 997:Core/Src/lis3dh_driver.c ****     value2 |= (MEMS_ENABLE<<LIS3DH_D4D_INT1);
 2741              		.loc 1 997 5 is_stmt 1 view .LVU743
 997:Core/Src/lis3dh_driver.c ****     value2 |= (MEMS_ENABLE<<LIS3DH_D4D_INT1);
 2742              		.loc 1 997 12 is_stmt 0 view .LVU744
 2743 00a6 9DF80630 		ldrb	r3, [sp, #6]	@ zero_extendqisi2
 2744 00aa 03F0FB03 		and	r3, r3, #251
 2745 00ae 8DF80630 		strb	r3, [sp, #6]
 998:Core/Src/lis3dh_driver.c ****   }
 2746              		.loc 1 998 5 is_stmt 1 view .LVU745
 998:Core/Src/lis3dh_driver.c ****   }
 2747              		.loc 1 998 12 is_stmt 0 view .LVU746
 2748 00b2 43F00403 		orr	r3, r3, #4
 2749 00b6 8DF80630 		strb	r3, [sp, #6]
 2750 00ba BAE7     		b	.L189
 2751              		.cfi_endproc
 2752              	.LFE32:
 2754              		.section	.text.LIS3DH_Get6DPosition,"ax",%progbits
 2755              		.align	1
 2756              		.global	LIS3DH_Get6DPosition
 2757              		.syntax unified
 2758              		.thumb
 2759              		.thumb_func
 2761              	LIS3DH_Get6DPosition:
 2762              	.LVL140:
 2763              	.LFB33:
1015:Core/Src/lis3dh_driver.c **** 
1016:Core/Src/lis3dh_driver.c **** 
1017:Core/Src/lis3dh_driver.c **** /*******************************************************************************
1018:Core/Src/lis3dh_driver.c **** * Function Name  : LIS3DH_Get6DPosition
1019:Core/Src/lis3dh_driver.c **** * Description    : 6D, 4D Interrupt Position Detect
1020:Core/Src/lis3dh_driver.c **** * Input          : Byte to empty by POSITION_6D_t Typedef
1021:Core/Src/lis3dh_driver.c **** * Output         : None
1022:Core/Src/lis3dh_driver.c **** * Return         : Status [MEMS_ERROR, MEMS_SUCCESS]
1023:Core/Src/lis3dh_driver.c **** *******************************************************************************/
1024:Core/Src/lis3dh_driver.c **** status_t LIS3DH_Get6DPosition(u8_t* val){
 2764              		.loc 1 1024 41 is_stmt 1 view -0
ARM GAS  /tmp/ccQFuNLL.s 			page 74


 2765              		.cfi_startproc
 2766              		@ args = 0, pretend = 0, frame = 8
 2767              		@ frame_needed = 0, uses_anonymous_args = 0
 2768              		.loc 1 1024 41 is_stmt 0 view .LVU748
 2769 0000 10B5     		push	{r4, lr}
 2770              	.LCFI115:
 2771              		.cfi_def_cfa_offset 8
 2772              		.cfi_offset 4, -8
 2773              		.cfi_offset 14, -4
 2774 0002 82B0     		sub	sp, sp, #8
 2775              	.LCFI116:
 2776              		.cfi_def_cfa_offset 16
 2777 0004 0446     		mov	r4, r0
1025:Core/Src/lis3dh_driver.c ****   u8_t value;
 2778              		.loc 1 1025 3 is_stmt 1 view .LVU749
1026:Core/Src/lis3dh_driver.c ****   
1027:Core/Src/lis3dh_driver.c ****   if( !LIS3DH_ReadReg(LIS3DH_INT1_SRC, &value) )
 2779              		.loc 1 1027 3 view .LVU750
 2780              		.loc 1 1027 8 is_stmt 0 view .LVU751
 2781 0006 0DF10701 		add	r1, sp, #7
 2782 000a 3120     		movs	r0, #49
 2783              	.LVL141:
 2784              		.loc 1 1027 8 view .LVU752
 2785 000c FFF7FEFF 		bl	LIS3DH_ReadReg
 2786              	.LVL142:
 2787              		.loc 1 1027 5 view .LVU753
 2788 0010 0346     		mov	r3, r0
 2789 0012 98B3     		cbz	r0, .L196
1028:Core/Src/lis3dh_driver.c ****     return MEMS_ERROR;
1029:Core/Src/lis3dh_driver.c ****   
1030:Core/Src/lis3dh_driver.c ****   value &= 0x7F;
 2790              		.loc 1 1030 3 is_stmt 1 view .LVU754
 2791              		.loc 1 1030 9 is_stmt 0 view .LVU755
 2792 0014 9DF80730 		ldrb	r3, [sp, #7]	@ zero_extendqisi2
 2793 0018 03F07F03 		and	r3, r3, #127
 2794 001c 8DF80730 		strb	r3, [sp, #7]
1031:Core/Src/lis3dh_driver.c ****   
1032:Core/Src/lis3dh_driver.c ****   switch (value){
 2795              		.loc 1 1032 3 is_stmt 1 view .LVU756
 2796 0020 413B     		subs	r3, r3, #65
 2797 0022 1F2B     		cmp	r3, #31
 2798 0024 29D8     		bhi	.L204
 2799 0026 DFE803F0 		tbb	[pc, r3]
 2800              	.L198:
 2801 002a 18       		.byte	(.L203-.L198)/2
 2802 002b 14       		.byte	(.L202-.L198)/2
 2803 002c 28       		.byte	(.L204-.L198)/2
 2804 002d 10       		.byte	(.L201-.L198)/2
 2805 002e 28       		.byte	(.L204-.L198)/2
 2806 002f 28       		.byte	(.L204-.L198)/2
 2807 0030 28       		.byte	(.L204-.L198)/2
 2808 0031 1C       		.byte	(.L200-.L198)/2
 2809 0032 28       		.byte	(.L204-.L198)/2
 2810 0033 28       		.byte	(.L204-.L198)/2
 2811 0034 28       		.byte	(.L204-.L198)/2
 2812 0035 28       		.byte	(.L204-.L198)/2
 2813 0036 28       		.byte	(.L204-.L198)/2
ARM GAS  /tmp/ccQFuNLL.s 			page 75


 2814 0037 28       		.byte	(.L204-.L198)/2
 2815 0038 28       		.byte	(.L204-.L198)/2
 2816 0039 24       		.byte	(.L199-.L198)/2
 2817 003a 28       		.byte	(.L204-.L198)/2
 2818 003b 28       		.byte	(.L204-.L198)/2
 2819 003c 28       		.byte	(.L204-.L198)/2
 2820 003d 28       		.byte	(.L204-.L198)/2
 2821 003e 28       		.byte	(.L204-.L198)/2
 2822 003f 28       		.byte	(.L204-.L198)/2
 2823 0040 28       		.byte	(.L204-.L198)/2
 2824 0041 28       		.byte	(.L204-.L198)/2
 2825 0042 28       		.byte	(.L204-.L198)/2
 2826 0043 28       		.byte	(.L204-.L198)/2
 2827 0044 28       		.byte	(.L204-.L198)/2
 2828 0045 28       		.byte	(.L204-.L198)/2
 2829 0046 28       		.byte	(.L204-.L198)/2
 2830 0047 28       		.byte	(.L204-.L198)/2
 2831 0048 28       		.byte	(.L204-.L198)/2
 2832 0049 20       		.byte	(.L197-.L198)/2
 2833              		.p2align 1
 2834              	.L201:
1033:Core/Src/lis3dh_driver.c ****   case LIS3DH_UP_SX:   
1034:Core/Src/lis3dh_driver.c ****     *val = LIS3DH_UP_SX;    
 2835              		.loc 1 1034 5 view .LVU757
 2836              		.loc 1 1034 10 is_stmt 0 view .LVU758
 2837 004a 4423     		movs	r3, #68
 2838 004c 2370     		strb	r3, [r4]
1035:Core/Src/lis3dh_driver.c ****     break;
 2839              		.loc 1 1035 5 is_stmt 1 view .LVU759
1036:Core/Src/lis3dh_driver.c ****   case LIS3DH_UP_DX:   
1037:Core/Src/lis3dh_driver.c ****     *val = LIS3DH_UP_DX;    
1038:Core/Src/lis3dh_driver.c ****     break;
1039:Core/Src/lis3dh_driver.c ****   case LIS3DH_DW_SX:   
1040:Core/Src/lis3dh_driver.c ****     *val = LIS3DH_DW_SX;    
1041:Core/Src/lis3dh_driver.c ****     break;
1042:Core/Src/lis3dh_driver.c ****   case LIS3DH_DW_DX:   
1043:Core/Src/lis3dh_driver.c ****     *val = LIS3DH_DW_DX;    
1044:Core/Src/lis3dh_driver.c ****     break;
1045:Core/Src/lis3dh_driver.c ****   case LIS3DH_TOP:     
1046:Core/Src/lis3dh_driver.c ****     *val = LIS3DH_TOP;      
1047:Core/Src/lis3dh_driver.c ****     break;
1048:Core/Src/lis3dh_driver.c ****   case LIS3DH_BOTTOM:  
1049:Core/Src/lis3dh_driver.c ****     *val = LIS3DH_BOTTOM;   
1050:Core/Src/lis3dh_driver.c ****     break;
1051:Core/Src/lis3dh_driver.c ****   }
1052:Core/Src/lis3dh_driver.c ****   
1053:Core/Src/lis3dh_driver.c ****   return MEMS_SUCCESS;  
 2840              		.loc 1 1053 10 is_stmt 0 view .LVU760
 2841 004e 0123     		movs	r3, #1
1035:Core/Src/lis3dh_driver.c ****     break;
 2842              		.loc 1 1035 5 view .LVU761
 2843 0050 14E0     		b	.L196
 2844              	.L202:
1037:Core/Src/lis3dh_driver.c ****     break;
 2845              		.loc 1 1037 5 is_stmt 1 view .LVU762
1037:Core/Src/lis3dh_driver.c ****     break;
 2846              		.loc 1 1037 10 is_stmt 0 view .LVU763
ARM GAS  /tmp/ccQFuNLL.s 			page 76


 2847 0052 4223     		movs	r3, #66
 2848 0054 2370     		strb	r3, [r4]
1038:Core/Src/lis3dh_driver.c ****   case LIS3DH_DW_SX:   
 2849              		.loc 1 1038 5 is_stmt 1 view .LVU764
 2850              		.loc 1 1053 10 is_stmt 0 view .LVU765
 2851 0056 0123     		movs	r3, #1
1038:Core/Src/lis3dh_driver.c ****   case LIS3DH_DW_SX:   
 2852              		.loc 1 1038 5 view .LVU766
 2853 0058 10E0     		b	.L196
 2854              	.L203:
1040:Core/Src/lis3dh_driver.c ****     break;
 2855              		.loc 1 1040 5 is_stmt 1 view .LVU767
1040:Core/Src/lis3dh_driver.c ****     break;
 2856              		.loc 1 1040 10 is_stmt 0 view .LVU768
 2857 005a 4123     		movs	r3, #65
 2858 005c 2370     		strb	r3, [r4]
1041:Core/Src/lis3dh_driver.c ****   case LIS3DH_DW_DX:   
 2859              		.loc 1 1041 5 is_stmt 1 view .LVU769
 2860              		.loc 1 1053 10 is_stmt 0 view .LVU770
 2861 005e 0123     		movs	r3, #1
1041:Core/Src/lis3dh_driver.c ****   case LIS3DH_DW_DX:   
 2862              		.loc 1 1041 5 view .LVU771
 2863 0060 0CE0     		b	.L196
 2864              	.L200:
1043:Core/Src/lis3dh_driver.c ****     break;
 2865              		.loc 1 1043 5 is_stmt 1 view .LVU772
1043:Core/Src/lis3dh_driver.c ****     break;
 2866              		.loc 1 1043 10 is_stmt 0 view .LVU773
 2867 0062 4823     		movs	r3, #72
 2868 0064 2370     		strb	r3, [r4]
1044:Core/Src/lis3dh_driver.c ****   case LIS3DH_TOP:     
 2869              		.loc 1 1044 5 is_stmt 1 view .LVU774
 2870              		.loc 1 1053 10 is_stmt 0 view .LVU775
 2871 0066 0123     		movs	r3, #1
1044:Core/Src/lis3dh_driver.c ****   case LIS3DH_TOP:     
 2872              		.loc 1 1044 5 view .LVU776
 2873 0068 08E0     		b	.L196
 2874              	.L197:
1046:Core/Src/lis3dh_driver.c ****     break;
 2875              		.loc 1 1046 5 is_stmt 1 view .LVU777
1046:Core/Src/lis3dh_driver.c ****     break;
 2876              		.loc 1 1046 10 is_stmt 0 view .LVU778
 2877 006a 6023     		movs	r3, #96
 2878 006c 2370     		strb	r3, [r4]
1047:Core/Src/lis3dh_driver.c ****   case LIS3DH_BOTTOM:  
 2879              		.loc 1 1047 5 is_stmt 1 view .LVU779
 2880              		.loc 1 1053 10 is_stmt 0 view .LVU780
 2881 006e 0123     		movs	r3, #1
1047:Core/Src/lis3dh_driver.c ****   case LIS3DH_BOTTOM:  
 2882              		.loc 1 1047 5 view .LVU781
 2883 0070 04E0     		b	.L196
 2884              	.L199:
1049:Core/Src/lis3dh_driver.c ****     break;
 2885              		.loc 1 1049 5 is_stmt 1 view .LVU782
1049:Core/Src/lis3dh_driver.c ****     break;
 2886              		.loc 1 1049 10 is_stmt 0 view .LVU783
 2887 0072 5023     		movs	r3, #80
ARM GAS  /tmp/ccQFuNLL.s 			page 77


 2888 0074 2370     		strb	r3, [r4]
1050:Core/Src/lis3dh_driver.c ****   }
 2889              		.loc 1 1050 5 is_stmt 1 view .LVU784
 2890              		.loc 1 1053 10 is_stmt 0 view .LVU785
 2891 0076 0123     		movs	r3, #1
1050:Core/Src/lis3dh_driver.c ****   }
 2892              		.loc 1 1050 5 view .LVU786
 2893 0078 00E0     		b	.L196
 2894              	.L204:
1032:Core/Src/lis3dh_driver.c ****   case LIS3DH_UP_SX:   
 2895              		.loc 1 1032 3 view .LVU787
 2896 007a 0123     		movs	r3, #1
 2897              	.L196:
1054:Core/Src/lis3dh_driver.c **** }
 2898              		.loc 1 1054 1 view .LVU788
 2899 007c 1846     		mov	r0, r3
 2900 007e 02B0     		add	sp, sp, #8
 2901              	.LCFI117:
 2902              		.cfi_def_cfa_offset 8
 2903              		@ sp needed
 2904 0080 10BD     		pop	{r4, pc}
 2905              		.loc 1 1054 1 view .LVU789
 2906              		.cfi_endproc
 2907              	.LFE33:
 2909              		.section	.text.LIS3DH_SetInt1Threshold,"ax",%progbits
 2910              		.align	1
 2911              		.global	LIS3DH_SetInt1Threshold
 2912              		.syntax unified
 2913              		.thumb
 2914              		.thumb_func
 2916              	LIS3DH_SetInt1Threshold:
 2917              	.LVL143:
 2918              	.LFB34:
1055:Core/Src/lis3dh_driver.c **** 
1056:Core/Src/lis3dh_driver.c **** 
1057:Core/Src/lis3dh_driver.c **** /*******************************************************************************
1058:Core/Src/lis3dh_driver.c **** * Function Name  : LIS3DH_SetInt1Threshold
1059:Core/Src/lis3dh_driver.c **** * Description    : Sets Interrupt 1 Threshold
1060:Core/Src/lis3dh_driver.c **** * Input          : Threshold = [0,31]
1061:Core/Src/lis3dh_driver.c **** * Output         : None
1062:Core/Src/lis3dh_driver.c **** * Return         : Status [MEMS_ERROR, MEMS_SUCCESS]
1063:Core/Src/lis3dh_driver.c **** *******************************************************************************/
1064:Core/Src/lis3dh_driver.c **** status_t LIS3DH_SetInt1Threshold(u8_t ths) {
 2919              		.loc 1 1064 44 is_stmt 1 view -0
 2920              		.cfi_startproc
 2921              		@ args = 0, pretend = 0, frame = 0
 2922              		@ frame_needed = 0, uses_anonymous_args = 0
1065:Core/Src/lis3dh_driver.c ****   if (ths > 127)
 2923              		.loc 1 1065 3 view .LVU791
 2924              		.loc 1 1065 6 is_stmt 0 view .LVU792
 2925 0000 10F0800F 		tst	r0, #128
 2926 0004 07D1     		bne	.L208
1064:Core/Src/lis3dh_driver.c ****   if (ths > 127)
 2927              		.loc 1 1064 44 view .LVU793
 2928 0006 08B5     		push	{r3, lr}
 2929              	.LCFI118:
 2930              		.cfi_def_cfa_offset 8
ARM GAS  /tmp/ccQFuNLL.s 			page 78


 2931              		.cfi_offset 3, -8
 2932              		.cfi_offset 14, -4
 2933 0008 0146     		mov	r1, r0
1066:Core/Src/lis3dh_driver.c ****     return MEMS_ERROR;
1067:Core/Src/lis3dh_driver.c ****   
1068:Core/Src/lis3dh_driver.c ****   if( !LIS3DH_WriteReg(LIS3DH_INT1_THS, ths) )
 2934              		.loc 1 1068 3 is_stmt 1 view .LVU794
 2935              		.loc 1 1068 8 is_stmt 0 view .LVU795
 2936 000a 3220     		movs	r0, #50
 2937              	.LVL144:
 2938              		.loc 1 1068 8 view .LVU796
 2939 000c FFF7FEFF 		bl	LIS3DH_WriteReg
 2940              	.LVL145:
 2941              		.loc 1 1068 5 view .LVU797
 2942 0010 00B1     		cbz	r0, .L207
1069:Core/Src/lis3dh_driver.c ****     return MEMS_ERROR;    
1070:Core/Src/lis3dh_driver.c ****   
1071:Core/Src/lis3dh_driver.c ****   return MEMS_SUCCESS;
 2943              		.loc 1 1071 10 view .LVU798
 2944 0012 0120     		movs	r0, #1
 2945              	.L207:
1072:Core/Src/lis3dh_driver.c **** }
 2946              		.loc 1 1072 1 view .LVU799
 2947 0014 08BD     		pop	{r3, pc}
 2948              	.LVL146:
 2949              	.L208:
 2950              	.LCFI119:
 2951              		.cfi_def_cfa_offset 0
 2952              		.cfi_restore 3
 2953              		.cfi_restore 14
1066:Core/Src/lis3dh_driver.c ****     return MEMS_ERROR;
 2954              		.loc 1 1066 12 view .LVU800
 2955 0016 0020     		movs	r0, #0
 2956              	.LVL147:
 2957              		.loc 1 1072 1 view .LVU801
 2958 0018 7047     		bx	lr
 2959              		.cfi_endproc
 2960              	.LFE34:
 2962              		.section	.text.LIS3DH_SetInt1Duration,"ax",%progbits
 2963              		.align	1
 2964              		.global	LIS3DH_SetInt1Duration
 2965              		.syntax unified
 2966              		.thumb
 2967              		.thumb_func
 2969              	LIS3DH_SetInt1Duration:
 2970              	.LVL148:
 2971              	.LFB35:
1073:Core/Src/lis3dh_driver.c **** 
1074:Core/Src/lis3dh_driver.c **** 
1075:Core/Src/lis3dh_driver.c **** /*******************************************************************************
1076:Core/Src/lis3dh_driver.c **** * Function Name  : LIS3DH_SetInt1Duration
1077:Core/Src/lis3dh_driver.c **** * Description    : Sets Interrupt 1 Duration
1078:Core/Src/lis3dh_driver.c **** * Input          : Duration value
1079:Core/Src/lis3dh_driver.c **** * Output         : None
1080:Core/Src/lis3dh_driver.c **** * Return         : Status [MEMS_ERROR, MEMS_SUCCESS]
1081:Core/Src/lis3dh_driver.c **** *******************************************************************************/
1082:Core/Src/lis3dh_driver.c **** status_t LIS3DH_SetInt1Duration(LIS3DH_Int1Conf_t id) {
ARM GAS  /tmp/ccQFuNLL.s 			page 79


 2972              		.loc 1 1082 55 is_stmt 1 view -0
 2973              		.cfi_startproc
 2974              		@ args = 0, pretend = 0, frame = 0
 2975              		@ frame_needed = 0, uses_anonymous_args = 0
1083:Core/Src/lis3dh_driver.c ****   
1084:Core/Src/lis3dh_driver.c ****   if (id > 127)
 2976              		.loc 1 1084 3 view .LVU803
 2977              		.loc 1 1084 6 is_stmt 0 view .LVU804
 2978 0000 10F0800F 		tst	r0, #128
 2979 0004 07D1     		bne	.L215
1082:Core/Src/lis3dh_driver.c ****   
 2980              		.loc 1 1082 55 view .LVU805
 2981 0006 08B5     		push	{r3, lr}
 2982              	.LCFI120:
 2983              		.cfi_def_cfa_offset 8
 2984              		.cfi_offset 3, -8
 2985              		.cfi_offset 14, -4
 2986 0008 0146     		mov	r1, r0
1085:Core/Src/lis3dh_driver.c ****     return MEMS_ERROR;
1086:Core/Src/lis3dh_driver.c ****   
1087:Core/Src/lis3dh_driver.c ****   if( !LIS3DH_WriteReg(LIS3DH_INT1_DURATION, id) )
 2987              		.loc 1 1087 3 is_stmt 1 view .LVU806
 2988              		.loc 1 1087 8 is_stmt 0 view .LVU807
 2989 000a 3320     		movs	r0, #51
 2990              	.LVL149:
 2991              		.loc 1 1087 8 view .LVU808
 2992 000c FFF7FEFF 		bl	LIS3DH_WriteReg
 2993              	.LVL150:
 2994              		.loc 1 1087 5 view .LVU809
 2995 0010 00B1     		cbz	r0, .L214
1088:Core/Src/lis3dh_driver.c ****     return MEMS_ERROR;
1089:Core/Src/lis3dh_driver.c ****   
1090:Core/Src/lis3dh_driver.c ****   return MEMS_SUCCESS;
 2996              		.loc 1 1090 10 view .LVU810
 2997 0012 0120     		movs	r0, #1
 2998              	.L214:
1091:Core/Src/lis3dh_driver.c **** }
 2999              		.loc 1 1091 1 view .LVU811
 3000 0014 08BD     		pop	{r3, pc}
 3001              	.LVL151:
 3002              	.L215:
 3003              	.LCFI121:
 3004              		.cfi_def_cfa_offset 0
 3005              		.cfi_restore 3
 3006              		.cfi_restore 14
1085:Core/Src/lis3dh_driver.c ****     return MEMS_ERROR;
 3007              		.loc 1 1085 12 view .LVU812
 3008 0016 0020     		movs	r0, #0
 3009              	.LVL152:
 3010              		.loc 1 1091 1 view .LVU813
 3011 0018 7047     		bx	lr
 3012              		.cfi_endproc
 3013              	.LFE35:
 3015              		.section	.text.LIS3DH_FIFOModeEnable,"ax",%progbits
 3016              		.align	1
 3017              		.global	LIS3DH_FIFOModeEnable
 3018              		.syntax unified
ARM GAS  /tmp/ccQFuNLL.s 			page 80


 3019              		.thumb
 3020              		.thumb_func
 3022              	LIS3DH_FIFOModeEnable:
 3023              	.LVL153:
 3024              	.LFB36:
1092:Core/Src/lis3dh_driver.c **** 
1093:Core/Src/lis3dh_driver.c **** 
1094:Core/Src/lis3dh_driver.c **** /*******************************************************************************
1095:Core/Src/lis3dh_driver.c **** * Function Name  : LIS3DH_FIFOModeEnable
1096:Core/Src/lis3dh_driver.c **** * Description    : Sets Fifo Modality
1097:Core/Src/lis3dh_driver.c **** * Input          : LIS3DH_FIFO_DISABLE, LIS3DH_FIFO_BYPASS_MODE, LIS3DH_FIFO_MODE, 
1098:Core/Src/lis3dh_driver.c **** 				   LIS3DH_FIFO_STREAM_MODE, LIS3DH_FIFO_TRIGGER_MODE
1099:Core/Src/lis3dh_driver.c **** * Output         : None
1100:Core/Src/lis3dh_driver.c **** * Return         : Status [MEMS_ERROR, MEMS_SUCCESS]
1101:Core/Src/lis3dh_driver.c **** *******************************************************************************/
1102:Core/Src/lis3dh_driver.c **** status_t LIS3DH_FIFOModeEnable(LIS3DH_FifoMode_t fm) {
 3025              		.loc 1 1102 54 is_stmt 1 view -0
 3026              		.cfi_startproc
 3027              		@ args = 0, pretend = 0, frame = 8
 3028              		@ frame_needed = 0, uses_anonymous_args = 0
 3029              		.loc 1 1102 54 is_stmt 0 view .LVU815
 3030 0000 10B5     		push	{r4, lr}
 3031              	.LCFI122:
 3032              		.cfi_def_cfa_offset 8
 3033              		.cfi_offset 4, -8
 3034              		.cfi_offset 14, -4
 3035 0002 82B0     		sub	sp, sp, #8
 3036              	.LCFI123:
 3037              		.cfi_def_cfa_offset 16
 3038 0004 0446     		mov	r4, r0
1103:Core/Src/lis3dh_driver.c ****   u8_t value;  
 3039              		.loc 1 1103 3 is_stmt 1 view .LVU816
1104:Core/Src/lis3dh_driver.c ****   
1105:Core/Src/lis3dh_driver.c ****   if(fm == LIS3DH_FIFO_DISABLE) { 
 3040              		.loc 1 1105 3 view .LVU817
 3041              		.loc 1 1105 5 is_stmt 0 view .LVU818
 3042 0006 0428     		cmp	r0, #4
 3043 0008 0CD0     		beq	.L228
 3044              	.LVL154:
 3045              	.L221:
1106:Core/Src/lis3dh_driver.c ****     if( !LIS3DH_ReadReg(LIS3DH_FIFO_CTRL_REG, &value) )
1107:Core/Src/lis3dh_driver.c ****       return MEMS_ERROR;
1108:Core/Src/lis3dh_driver.c ****     
1109:Core/Src/lis3dh_driver.c ****     value &= 0x1F;
1110:Core/Src/lis3dh_driver.c ****     value |= (LIS3DH_FIFO_BYPASS_MODE<<LIS3DH_FM);                     
1111:Core/Src/lis3dh_driver.c ****     
1112:Core/Src/lis3dh_driver.c ****     if( !LIS3DH_WriteReg(LIS3DH_FIFO_CTRL_REG, value) )           //fifo mode bypass
1113:Core/Src/lis3dh_driver.c ****       return MEMS_ERROR;   
1114:Core/Src/lis3dh_driver.c ****     if( !LIS3DH_ReadReg(LIS3DH_CTRL_REG5, &value) )
1115:Core/Src/lis3dh_driver.c ****       return MEMS_ERROR;
1116:Core/Src/lis3dh_driver.c ****     
1117:Core/Src/lis3dh_driver.c ****     value &= 0xBF;    
1118:Core/Src/lis3dh_driver.c ****     
1119:Core/Src/lis3dh_driver.c ****     if( !LIS3DH_WriteReg(LIS3DH_CTRL_REG5, value) )               //fifo disable
1120:Core/Src/lis3dh_driver.c ****       return MEMS_ERROR;   
1121:Core/Src/lis3dh_driver.c ****   }
1122:Core/Src/lis3dh_driver.c ****   
ARM GAS  /tmp/ccQFuNLL.s 			page 81


1123:Core/Src/lis3dh_driver.c ****   if(fm == LIS3DH_FIFO_BYPASS_MODE)   {  
 3046              		.loc 1 1123 3 is_stmt 1 view .LVU819
 3047              		.loc 1 1123 5 is_stmt 0 view .LVU820
 3048 000a A4B3     		cbz	r4, .L229
 3049              	.L223:
1124:Core/Src/lis3dh_driver.c ****     if( !LIS3DH_ReadReg(LIS3DH_CTRL_REG5, &value) )
1125:Core/Src/lis3dh_driver.c ****       return MEMS_ERROR;
1126:Core/Src/lis3dh_driver.c ****     
1127:Core/Src/lis3dh_driver.c ****     value &= 0xBF;
1128:Core/Src/lis3dh_driver.c ****     value |= MEMS_SET<<LIS3DH_FIFO_EN;
1129:Core/Src/lis3dh_driver.c ****     
1130:Core/Src/lis3dh_driver.c ****     if( !LIS3DH_WriteReg(LIS3DH_CTRL_REG5, value) )               //fifo enable
1131:Core/Src/lis3dh_driver.c ****       return MEMS_ERROR;  
1132:Core/Src/lis3dh_driver.c ****     if( !LIS3DH_ReadReg(LIS3DH_FIFO_CTRL_REG, &value) )
1133:Core/Src/lis3dh_driver.c ****       return MEMS_ERROR;
1134:Core/Src/lis3dh_driver.c ****     
1135:Core/Src/lis3dh_driver.c ****     value &= 0x1f;
1136:Core/Src/lis3dh_driver.c ****     value |= (fm<<LIS3DH_FM);                     //fifo mode configuration
1137:Core/Src/lis3dh_driver.c ****     
1138:Core/Src/lis3dh_driver.c ****     if( !LIS3DH_WriteReg(LIS3DH_FIFO_CTRL_REG, value) )
1139:Core/Src/lis3dh_driver.c ****       return MEMS_ERROR;
1140:Core/Src/lis3dh_driver.c ****   }
1141:Core/Src/lis3dh_driver.c ****   
1142:Core/Src/lis3dh_driver.c ****   if(fm == LIS3DH_FIFO_MODE)   {
 3050              		.loc 1 1142 3 is_stmt 1 view .LVU821
 3051              		.loc 1 1142 5 is_stmt 0 view .LVU822
 3052 000c 012C     		cmp	r4, #1
 3053 000e 64D0     		beq	.L230
 3054              	.L224:
1143:Core/Src/lis3dh_driver.c ****     if( !LIS3DH_ReadReg(LIS3DH_CTRL_REG5, &value) )
1144:Core/Src/lis3dh_driver.c ****       return MEMS_ERROR;
1145:Core/Src/lis3dh_driver.c ****     
1146:Core/Src/lis3dh_driver.c ****     value &= 0xBF;
1147:Core/Src/lis3dh_driver.c ****     value |= MEMS_SET<<LIS3DH_FIFO_EN;
1148:Core/Src/lis3dh_driver.c ****     
1149:Core/Src/lis3dh_driver.c ****     if( !LIS3DH_WriteReg(LIS3DH_CTRL_REG5, value) )               //fifo enable
1150:Core/Src/lis3dh_driver.c ****       return MEMS_ERROR;  
1151:Core/Src/lis3dh_driver.c ****     if( !LIS3DH_ReadReg(LIS3DH_FIFO_CTRL_REG, &value) )
1152:Core/Src/lis3dh_driver.c ****       return MEMS_ERROR;
1153:Core/Src/lis3dh_driver.c ****     
1154:Core/Src/lis3dh_driver.c ****     value &= 0x1f;
1155:Core/Src/lis3dh_driver.c ****     value |= (fm<<LIS3DH_FM);                      //fifo mode configuration
1156:Core/Src/lis3dh_driver.c ****     
1157:Core/Src/lis3dh_driver.c ****     if( !LIS3DH_WriteReg(LIS3DH_FIFO_CTRL_REG, value) )
1158:Core/Src/lis3dh_driver.c ****       return MEMS_ERROR;
1159:Core/Src/lis3dh_driver.c ****   }
1160:Core/Src/lis3dh_driver.c ****   
1161:Core/Src/lis3dh_driver.c ****   if(fm == LIS3DH_FIFO_STREAM_MODE)   {  
 3055              		.loc 1 1161 3 is_stmt 1 view .LVU823
 3056              		.loc 1 1161 5 is_stmt 0 view .LVU824
 3057 0010 022C     		cmp	r4, #2
 3058 0012 00F09580 		beq	.L231
 3059              	.L225:
1162:Core/Src/lis3dh_driver.c ****     if( !LIS3DH_ReadReg(LIS3DH_CTRL_REG5, &value) )
1163:Core/Src/lis3dh_driver.c ****       return MEMS_ERROR;
1164:Core/Src/lis3dh_driver.c ****     
1165:Core/Src/lis3dh_driver.c ****     value &= 0xBF;
ARM GAS  /tmp/ccQFuNLL.s 			page 82


1166:Core/Src/lis3dh_driver.c ****     value |= MEMS_SET<<LIS3DH_FIFO_EN;
1167:Core/Src/lis3dh_driver.c ****     
1168:Core/Src/lis3dh_driver.c ****     if( !LIS3DH_WriteReg(LIS3DH_CTRL_REG5, value) )               //fifo enable
1169:Core/Src/lis3dh_driver.c ****       return MEMS_ERROR;   
1170:Core/Src/lis3dh_driver.c ****     if( !LIS3DH_ReadReg(LIS3DH_FIFO_CTRL_REG, &value) )
1171:Core/Src/lis3dh_driver.c ****       return MEMS_ERROR;
1172:Core/Src/lis3dh_driver.c ****     
1173:Core/Src/lis3dh_driver.c ****     value &= 0x1f;
1174:Core/Src/lis3dh_driver.c ****     value |= (fm<<LIS3DH_FM);                      //fifo mode configuration
1175:Core/Src/lis3dh_driver.c ****     
1176:Core/Src/lis3dh_driver.c ****     if( !LIS3DH_WriteReg(LIS3DH_FIFO_CTRL_REG, value) )
1177:Core/Src/lis3dh_driver.c ****       return MEMS_ERROR;
1178:Core/Src/lis3dh_driver.c ****   }
1179:Core/Src/lis3dh_driver.c ****   
1180:Core/Src/lis3dh_driver.c ****   if(fm == LIS3DH_FIFO_TRIGGER_MODE)   {  
 3060              		.loc 1 1180 3 is_stmt 1 view .LVU825
 3061              		.loc 1 1180 5 is_stmt 0 view .LVU826
 3062 0016 032C     		cmp	r4, #3
 3063 0018 00F0C880 		beq	.L232
1181:Core/Src/lis3dh_driver.c ****     if( !LIS3DH_ReadReg(LIS3DH_CTRL_REG5, &value) )
1182:Core/Src/lis3dh_driver.c ****       return MEMS_ERROR;
1183:Core/Src/lis3dh_driver.c ****     
1184:Core/Src/lis3dh_driver.c ****     value &= 0xBF;
1185:Core/Src/lis3dh_driver.c ****     value |= MEMS_SET<<LIS3DH_FIFO_EN;
1186:Core/Src/lis3dh_driver.c ****     
1187:Core/Src/lis3dh_driver.c ****     if( !LIS3DH_WriteReg(LIS3DH_CTRL_REG5, value) )               //fifo enable
1188:Core/Src/lis3dh_driver.c ****       return MEMS_ERROR;    
1189:Core/Src/lis3dh_driver.c ****     if( !LIS3DH_ReadReg(LIS3DH_FIFO_CTRL_REG, &value) )
1190:Core/Src/lis3dh_driver.c ****       return MEMS_ERROR;
1191:Core/Src/lis3dh_driver.c ****     
1192:Core/Src/lis3dh_driver.c ****     value &= 0x1f;
1193:Core/Src/lis3dh_driver.c ****     value |= (fm<<LIS3DH_FM);                      //fifo mode configuration
1194:Core/Src/lis3dh_driver.c ****     
1195:Core/Src/lis3dh_driver.c ****     if( !LIS3DH_WriteReg(LIS3DH_FIFO_CTRL_REG, value) )
1196:Core/Src/lis3dh_driver.c ****       return MEMS_ERROR;
1197:Core/Src/lis3dh_driver.c ****   }
1198:Core/Src/lis3dh_driver.c ****   
1199:Core/Src/lis3dh_driver.c ****   return MEMS_SUCCESS;
 3064              		.loc 1 1199 10 view .LVU827
 3065 001c 0123     		movs	r3, #1
 3066              	.L222:
1200:Core/Src/lis3dh_driver.c **** }
 3067              		.loc 1 1200 1 view .LVU828
 3068 001e 1846     		mov	r0, r3
 3069 0020 02B0     		add	sp, sp, #8
 3070              	.LCFI124:
 3071              		.cfi_remember_state
 3072              		.cfi_def_cfa_offset 8
 3073              		@ sp needed
 3074 0022 10BD     		pop	{r4, pc}
 3075              	.LVL155:
 3076              	.L228:
 3077              	.LCFI125:
 3078              		.cfi_restore_state
1106:Core/Src/lis3dh_driver.c ****       return MEMS_ERROR;
 3079              		.loc 1 1106 5 is_stmt 1 view .LVU829
1106:Core/Src/lis3dh_driver.c ****       return MEMS_ERROR;
ARM GAS  /tmp/ccQFuNLL.s 			page 83


 3080              		.loc 1 1106 10 is_stmt 0 view .LVU830
 3081 0024 0DF10701 		add	r1, sp, #7
 3082 0028 2E20     		movs	r0, #46
 3083              	.LVL156:
1106:Core/Src/lis3dh_driver.c ****       return MEMS_ERROR;
 3084              		.loc 1 1106 10 view .LVU831
 3085 002a FFF7FEFF 		bl	LIS3DH_ReadReg
 3086              	.LVL157:
1106:Core/Src/lis3dh_driver.c ****       return MEMS_ERROR;
 3087              		.loc 1 1106 7 view .LVU832
 3088 002e 0346     		mov	r3, r0
 3089 0030 0028     		cmp	r0, #0
 3090 0032 F4D0     		beq	.L222
1109:Core/Src/lis3dh_driver.c ****     value |= (LIS3DH_FIFO_BYPASS_MODE<<LIS3DH_FM);                     
 3091              		.loc 1 1109 5 is_stmt 1 view .LVU833
1109:Core/Src/lis3dh_driver.c ****     value |= (LIS3DH_FIFO_BYPASS_MODE<<LIS3DH_FM);                     
 3092              		.loc 1 1109 11 is_stmt 0 view .LVU834
 3093 0034 9DF80710 		ldrb	r1, [sp, #7]	@ zero_extendqisi2
 3094 0038 01F01F01 		and	r1, r1, #31
 3095 003c 8DF80710 		strb	r1, [sp, #7]
1110:Core/Src/lis3dh_driver.c ****     
 3096              		.loc 1 1110 5 is_stmt 1 view .LVU835
1112:Core/Src/lis3dh_driver.c ****       return MEMS_ERROR;   
 3097              		.loc 1 1112 5 view .LVU836
1112:Core/Src/lis3dh_driver.c ****       return MEMS_ERROR;   
 3098              		.loc 1 1112 10 is_stmt 0 view .LVU837
 3099 0040 2E20     		movs	r0, #46
 3100 0042 FFF7FEFF 		bl	LIS3DH_WriteReg
 3101              	.LVL158:
1112:Core/Src/lis3dh_driver.c ****       return MEMS_ERROR;   
 3102              		.loc 1 1112 7 view .LVU838
 3103 0046 0346     		mov	r3, r0
 3104 0048 0028     		cmp	r0, #0
 3105 004a E8D0     		beq	.L222
1114:Core/Src/lis3dh_driver.c ****       return MEMS_ERROR;
 3106              		.loc 1 1114 5 is_stmt 1 view .LVU839
1114:Core/Src/lis3dh_driver.c ****       return MEMS_ERROR;
 3107              		.loc 1 1114 10 is_stmt 0 view .LVU840
 3108 004c 0DF10701 		add	r1, sp, #7
 3109 0050 2420     		movs	r0, #36
 3110 0052 FFF7FEFF 		bl	LIS3DH_ReadReg
 3111              	.LVL159:
1114:Core/Src/lis3dh_driver.c ****       return MEMS_ERROR;
 3112              		.loc 1 1114 7 view .LVU841
 3113 0056 0346     		mov	r3, r0
 3114 0058 0028     		cmp	r0, #0
 3115 005a E0D0     		beq	.L222
1117:Core/Src/lis3dh_driver.c ****     
 3116              		.loc 1 1117 5 is_stmt 1 view .LVU842
1117:Core/Src/lis3dh_driver.c ****     
 3117              		.loc 1 1117 11 is_stmt 0 view .LVU843
 3118 005c 9DF80710 		ldrb	r1, [sp, #7]	@ zero_extendqisi2
 3119 0060 01F0BF01 		and	r1, r1, #191
 3120 0064 8DF80710 		strb	r1, [sp, #7]
1119:Core/Src/lis3dh_driver.c ****       return MEMS_ERROR;   
 3121              		.loc 1 1119 5 is_stmt 1 view .LVU844
1119:Core/Src/lis3dh_driver.c ****       return MEMS_ERROR;   
ARM GAS  /tmp/ccQFuNLL.s 			page 84


 3122              		.loc 1 1119 10 is_stmt 0 view .LVU845
 3123 0068 2420     		movs	r0, #36
 3124 006a FFF7FEFF 		bl	LIS3DH_WriteReg
 3125              	.LVL160:
1119:Core/Src/lis3dh_driver.c ****       return MEMS_ERROR;   
 3126              		.loc 1 1119 7 view .LVU846
 3127 006e 0346     		mov	r3, r0
 3128 0070 0028     		cmp	r0, #0
 3129 0072 CAD1     		bne	.L221
 3130 0074 D3E7     		b	.L222
 3131              	.L229:
1124:Core/Src/lis3dh_driver.c ****       return MEMS_ERROR;
 3132              		.loc 1 1124 5 is_stmt 1 view .LVU847
1124:Core/Src/lis3dh_driver.c ****       return MEMS_ERROR;
 3133              		.loc 1 1124 10 is_stmt 0 view .LVU848
 3134 0076 0DF10701 		add	r1, sp, #7
 3135 007a 2420     		movs	r0, #36
 3136 007c FFF7FEFF 		bl	LIS3DH_ReadReg
 3137              	.LVL161:
1124:Core/Src/lis3dh_driver.c ****       return MEMS_ERROR;
 3138              		.loc 1 1124 7 view .LVU849
 3139 0080 0346     		mov	r3, r0
 3140 0082 0028     		cmp	r0, #0
 3141 0084 CBD0     		beq	.L222
1127:Core/Src/lis3dh_driver.c ****     value |= MEMS_SET<<LIS3DH_FIFO_EN;
 3142              		.loc 1 1127 5 is_stmt 1 view .LVU850
1127:Core/Src/lis3dh_driver.c ****     value |= MEMS_SET<<LIS3DH_FIFO_EN;
 3143              		.loc 1 1127 11 is_stmt 0 view .LVU851
 3144 0086 9DF80710 		ldrb	r1, [sp, #7]	@ zero_extendqisi2
 3145 008a 01F0BF01 		and	r1, r1, #191
 3146 008e 8DF80710 		strb	r1, [sp, #7]
1128:Core/Src/lis3dh_driver.c ****     
 3147              		.loc 1 1128 5 is_stmt 1 view .LVU852
1128:Core/Src/lis3dh_driver.c ****     
 3148              		.loc 1 1128 11 is_stmt 0 view .LVU853
 3149 0092 41F04001 		orr	r1, r1, #64
 3150 0096 8DF80710 		strb	r1, [sp, #7]
1130:Core/Src/lis3dh_driver.c ****       return MEMS_ERROR;  
 3151              		.loc 1 1130 5 is_stmt 1 view .LVU854
1130:Core/Src/lis3dh_driver.c ****       return MEMS_ERROR;  
 3152              		.loc 1 1130 10 is_stmt 0 view .LVU855
 3153 009a 2420     		movs	r0, #36
 3154 009c FFF7FEFF 		bl	LIS3DH_WriteReg
 3155              	.LVL162:
1130:Core/Src/lis3dh_driver.c ****       return MEMS_ERROR;  
 3156              		.loc 1 1130 7 view .LVU856
 3157 00a0 0346     		mov	r3, r0
 3158 00a2 0028     		cmp	r0, #0
 3159 00a4 BBD0     		beq	.L222
1132:Core/Src/lis3dh_driver.c ****       return MEMS_ERROR;
 3160              		.loc 1 1132 5 is_stmt 1 view .LVU857
1132:Core/Src/lis3dh_driver.c ****       return MEMS_ERROR;
 3161              		.loc 1 1132 10 is_stmt 0 view .LVU858
 3162 00a6 0DF10701 		add	r1, sp, #7
 3163 00aa 2E20     		movs	r0, #46
 3164 00ac FFF7FEFF 		bl	LIS3DH_ReadReg
 3165              	.LVL163:
ARM GAS  /tmp/ccQFuNLL.s 			page 85


1132:Core/Src/lis3dh_driver.c ****       return MEMS_ERROR;
 3166              		.loc 1 1132 7 view .LVU859
 3167 00b0 0346     		mov	r3, r0
 3168 00b2 0028     		cmp	r0, #0
 3169 00b4 B3D0     		beq	.L222
1135:Core/Src/lis3dh_driver.c ****     value |= (fm<<LIS3DH_FM);                     //fifo mode configuration
 3170              		.loc 1 1135 5 is_stmt 1 view .LVU860
1135:Core/Src/lis3dh_driver.c ****     value |= (fm<<LIS3DH_FM);                     //fifo mode configuration
 3171              		.loc 1 1135 11 is_stmt 0 view .LVU861
 3172 00b6 9DF80710 		ldrb	r1, [sp, #7]	@ zero_extendqisi2
 3173 00ba 01F01F01 		and	r1, r1, #31
 3174 00be 8DF80710 		strb	r1, [sp, #7]
1136:Core/Src/lis3dh_driver.c ****     
 3175              		.loc 1 1136 5 is_stmt 1 view .LVU862
1136:Core/Src/lis3dh_driver.c ****     
 3176              		.loc 1 1136 11 is_stmt 0 view .LVU863
 3177 00c2 41EA8411 		orr	r1, r1, r4, lsl #6
 3178 00c6 C9B2     		uxtb	r1, r1
 3179 00c8 8DF80710 		strb	r1, [sp, #7]
1138:Core/Src/lis3dh_driver.c ****       return MEMS_ERROR;
 3180              		.loc 1 1138 5 is_stmt 1 view .LVU864
1138:Core/Src/lis3dh_driver.c ****       return MEMS_ERROR;
 3181              		.loc 1 1138 10 is_stmt 0 view .LVU865
 3182 00cc 2E20     		movs	r0, #46
 3183 00ce FFF7FEFF 		bl	LIS3DH_WriteReg
 3184              	.LVL164:
1138:Core/Src/lis3dh_driver.c ****       return MEMS_ERROR;
 3185              		.loc 1 1138 7 view .LVU866
 3186 00d2 0346     		mov	r3, r0
 3187 00d4 0028     		cmp	r0, #0
 3188 00d6 99D1     		bne	.L223
 3189 00d8 A1E7     		b	.L222
 3190              	.L230:
1143:Core/Src/lis3dh_driver.c ****       return MEMS_ERROR;
 3191              		.loc 1 1143 5 is_stmt 1 view .LVU867
1143:Core/Src/lis3dh_driver.c ****       return MEMS_ERROR;
 3192              		.loc 1 1143 10 is_stmt 0 view .LVU868
 3193 00da 0DF10701 		add	r1, sp, #7
 3194 00de 2420     		movs	r0, #36
 3195 00e0 FFF7FEFF 		bl	LIS3DH_ReadReg
 3196              	.LVL165:
1143:Core/Src/lis3dh_driver.c ****       return MEMS_ERROR;
 3197              		.loc 1 1143 7 view .LVU869
 3198 00e4 0346     		mov	r3, r0
 3199 00e6 0028     		cmp	r0, #0
 3200 00e8 99D0     		beq	.L222
1146:Core/Src/lis3dh_driver.c ****     value |= MEMS_SET<<LIS3DH_FIFO_EN;
 3201              		.loc 1 1146 5 is_stmt 1 view .LVU870
1146:Core/Src/lis3dh_driver.c ****     value |= MEMS_SET<<LIS3DH_FIFO_EN;
 3202              		.loc 1 1146 11 is_stmt 0 view .LVU871
 3203 00ea 9DF80710 		ldrb	r1, [sp, #7]	@ zero_extendqisi2
 3204 00ee 01F0BF01 		and	r1, r1, #191
 3205 00f2 8DF80710 		strb	r1, [sp, #7]
1147:Core/Src/lis3dh_driver.c ****     
 3206              		.loc 1 1147 5 is_stmt 1 view .LVU872
1147:Core/Src/lis3dh_driver.c ****     
 3207              		.loc 1 1147 11 is_stmt 0 view .LVU873
ARM GAS  /tmp/ccQFuNLL.s 			page 86


 3208 00f6 41F04001 		orr	r1, r1, #64
 3209 00fa 8DF80710 		strb	r1, [sp, #7]
1149:Core/Src/lis3dh_driver.c ****       return MEMS_ERROR;  
 3210              		.loc 1 1149 5 is_stmt 1 view .LVU874
1149:Core/Src/lis3dh_driver.c ****       return MEMS_ERROR;  
 3211              		.loc 1 1149 10 is_stmt 0 view .LVU875
 3212 00fe 2420     		movs	r0, #36
 3213 0100 FFF7FEFF 		bl	LIS3DH_WriteReg
 3214              	.LVL166:
1149:Core/Src/lis3dh_driver.c ****       return MEMS_ERROR;  
 3215              		.loc 1 1149 7 view .LVU876
 3216 0104 0346     		mov	r3, r0
 3217 0106 0028     		cmp	r0, #0
 3218 0108 89D0     		beq	.L222
1151:Core/Src/lis3dh_driver.c ****       return MEMS_ERROR;
 3219              		.loc 1 1151 5 is_stmt 1 view .LVU877
1151:Core/Src/lis3dh_driver.c ****       return MEMS_ERROR;
 3220              		.loc 1 1151 10 is_stmt 0 view .LVU878
 3221 010a 0DF10701 		add	r1, sp, #7
 3222 010e 2E20     		movs	r0, #46
 3223 0110 FFF7FEFF 		bl	LIS3DH_ReadReg
 3224              	.LVL167:
1151:Core/Src/lis3dh_driver.c ****       return MEMS_ERROR;
 3225              		.loc 1 1151 7 view .LVU879
 3226 0114 0346     		mov	r3, r0
 3227 0116 0028     		cmp	r0, #0
 3228 0118 81D0     		beq	.L222
1154:Core/Src/lis3dh_driver.c ****     value |= (fm<<LIS3DH_FM);                      //fifo mode configuration
 3229              		.loc 1 1154 5 is_stmt 1 view .LVU880
1154:Core/Src/lis3dh_driver.c ****     value |= (fm<<LIS3DH_FM);                      //fifo mode configuration
 3230              		.loc 1 1154 11 is_stmt 0 view .LVU881
 3231 011a 9DF80730 		ldrb	r3, [sp, #7]	@ zero_extendqisi2
 3232 011e 03F01F03 		and	r3, r3, #31
 3233 0122 8DF80730 		strb	r3, [sp, #7]
1155:Core/Src/lis3dh_driver.c ****     
 3234              		.loc 1 1155 5 is_stmt 1 view .LVU882
1155:Core/Src/lis3dh_driver.c ****     
 3235              		.loc 1 1155 11 is_stmt 0 view .LVU883
 3236 0126 43EA8413 		orr	r3, r3, r4, lsl #6
 3237 012a D9B2     		uxtb	r1, r3
 3238 012c 8DF80710 		strb	r1, [sp, #7]
1157:Core/Src/lis3dh_driver.c ****       return MEMS_ERROR;
 3239              		.loc 1 1157 5 is_stmt 1 view .LVU884
1157:Core/Src/lis3dh_driver.c ****       return MEMS_ERROR;
 3240              		.loc 1 1157 10 is_stmt 0 view .LVU885
 3241 0130 2E20     		movs	r0, #46
 3242 0132 FFF7FEFF 		bl	LIS3DH_WriteReg
 3243              	.LVL168:
1157:Core/Src/lis3dh_driver.c ****       return MEMS_ERROR;
 3244              		.loc 1 1157 7 view .LVU886
 3245 0136 0346     		mov	r3, r0
 3246 0138 0028     		cmp	r0, #0
 3247 013a 7FF469AF 		bne	.L224
 3248 013e 6EE7     		b	.L222
 3249              	.L231:
1162:Core/Src/lis3dh_driver.c ****       return MEMS_ERROR;
 3250              		.loc 1 1162 5 is_stmt 1 view .LVU887
ARM GAS  /tmp/ccQFuNLL.s 			page 87


1162:Core/Src/lis3dh_driver.c ****       return MEMS_ERROR;
 3251              		.loc 1 1162 10 is_stmt 0 view .LVU888
 3252 0140 0DF10701 		add	r1, sp, #7
 3253 0144 2420     		movs	r0, #36
 3254 0146 FFF7FEFF 		bl	LIS3DH_ReadReg
 3255              	.LVL169:
1162:Core/Src/lis3dh_driver.c ****       return MEMS_ERROR;
 3256              		.loc 1 1162 7 view .LVU889
 3257 014a 0346     		mov	r3, r0
 3258 014c 0028     		cmp	r0, #0
 3259 014e 3FF466AF 		beq	.L222
1165:Core/Src/lis3dh_driver.c ****     value |= MEMS_SET<<LIS3DH_FIFO_EN;
 3260              		.loc 1 1165 5 is_stmt 1 view .LVU890
1165:Core/Src/lis3dh_driver.c ****     value |= MEMS_SET<<LIS3DH_FIFO_EN;
 3261              		.loc 1 1165 11 is_stmt 0 view .LVU891
 3262 0152 9DF80710 		ldrb	r1, [sp, #7]	@ zero_extendqisi2
 3263 0156 01F0BF01 		and	r1, r1, #191
 3264 015a 8DF80710 		strb	r1, [sp, #7]
1166:Core/Src/lis3dh_driver.c ****     
 3265              		.loc 1 1166 5 is_stmt 1 view .LVU892
1166:Core/Src/lis3dh_driver.c ****     
 3266              		.loc 1 1166 11 is_stmt 0 view .LVU893
 3267 015e 41F04001 		orr	r1, r1, #64
 3268 0162 8DF80710 		strb	r1, [sp, #7]
1168:Core/Src/lis3dh_driver.c ****       return MEMS_ERROR;   
 3269              		.loc 1 1168 5 is_stmt 1 view .LVU894
1168:Core/Src/lis3dh_driver.c ****       return MEMS_ERROR;   
 3270              		.loc 1 1168 10 is_stmt 0 view .LVU895
 3271 0166 2420     		movs	r0, #36
 3272 0168 FFF7FEFF 		bl	LIS3DH_WriteReg
 3273              	.LVL170:
1168:Core/Src/lis3dh_driver.c ****       return MEMS_ERROR;   
 3274              		.loc 1 1168 7 view .LVU896
 3275 016c 0346     		mov	r3, r0
 3276 016e 0028     		cmp	r0, #0
 3277 0170 3FF455AF 		beq	.L222
1170:Core/Src/lis3dh_driver.c ****       return MEMS_ERROR;
 3278              		.loc 1 1170 5 is_stmt 1 view .LVU897
1170:Core/Src/lis3dh_driver.c ****       return MEMS_ERROR;
 3279              		.loc 1 1170 10 is_stmt 0 view .LVU898
 3280 0174 0DF10701 		add	r1, sp, #7
 3281 0178 2E20     		movs	r0, #46
 3282 017a FFF7FEFF 		bl	LIS3DH_ReadReg
 3283              	.LVL171:
1170:Core/Src/lis3dh_driver.c ****       return MEMS_ERROR;
 3284              		.loc 1 1170 7 view .LVU899
 3285 017e 0346     		mov	r3, r0
 3286 0180 0028     		cmp	r0, #0
 3287 0182 3FF44CAF 		beq	.L222
1173:Core/Src/lis3dh_driver.c ****     value |= (fm<<LIS3DH_FM);                      //fifo mode configuration
 3288              		.loc 1 1173 5 is_stmt 1 view .LVU900
1173:Core/Src/lis3dh_driver.c ****     value |= (fm<<LIS3DH_FM);                      //fifo mode configuration
 3289              		.loc 1 1173 11 is_stmt 0 view .LVU901
 3290 0186 9DF80730 		ldrb	r3, [sp, #7]	@ zero_extendqisi2
 3291 018a 03F01F03 		and	r3, r3, #31
 3292 018e 8DF80730 		strb	r3, [sp, #7]
1174:Core/Src/lis3dh_driver.c ****     
ARM GAS  /tmp/ccQFuNLL.s 			page 88


 3293              		.loc 1 1174 5 is_stmt 1 view .LVU902
1174:Core/Src/lis3dh_driver.c ****     
 3294              		.loc 1 1174 11 is_stmt 0 view .LVU903
 3295 0192 43EA8413 		orr	r3, r3, r4, lsl #6
 3296 0196 D9B2     		uxtb	r1, r3
 3297 0198 8DF80710 		strb	r1, [sp, #7]
1176:Core/Src/lis3dh_driver.c ****       return MEMS_ERROR;
 3298              		.loc 1 1176 5 is_stmt 1 view .LVU904
1176:Core/Src/lis3dh_driver.c ****       return MEMS_ERROR;
 3299              		.loc 1 1176 10 is_stmt 0 view .LVU905
 3300 019c 2E20     		movs	r0, #46
 3301 019e FFF7FEFF 		bl	LIS3DH_WriteReg
 3302              	.LVL172:
1176:Core/Src/lis3dh_driver.c ****       return MEMS_ERROR;
 3303              		.loc 1 1176 7 view .LVU906
 3304 01a2 0346     		mov	r3, r0
 3305 01a4 0028     		cmp	r0, #0
 3306 01a6 7FF436AF 		bne	.L225
 3307 01aa 38E7     		b	.L222
 3308              	.L232:
1181:Core/Src/lis3dh_driver.c ****       return MEMS_ERROR;
 3309              		.loc 1 1181 5 is_stmt 1 view .LVU907
1181:Core/Src/lis3dh_driver.c ****       return MEMS_ERROR;
 3310              		.loc 1 1181 10 is_stmt 0 view .LVU908
 3311 01ac 0DF10701 		add	r1, sp, #7
 3312 01b0 2420     		movs	r0, #36
 3313 01b2 FFF7FEFF 		bl	LIS3DH_ReadReg
 3314              	.LVL173:
1181:Core/Src/lis3dh_driver.c ****       return MEMS_ERROR;
 3315              		.loc 1 1181 7 view .LVU909
 3316 01b6 0346     		mov	r3, r0
 3317 01b8 0028     		cmp	r0, #0
 3318 01ba 3FF430AF 		beq	.L222
1184:Core/Src/lis3dh_driver.c ****     value |= MEMS_SET<<LIS3DH_FIFO_EN;
 3319              		.loc 1 1184 5 is_stmt 1 view .LVU910
1184:Core/Src/lis3dh_driver.c ****     value |= MEMS_SET<<LIS3DH_FIFO_EN;
 3320              		.loc 1 1184 11 is_stmt 0 view .LVU911
 3321 01be 9DF80710 		ldrb	r1, [sp, #7]	@ zero_extendqisi2
 3322 01c2 01F0BF01 		and	r1, r1, #191
 3323 01c6 8DF80710 		strb	r1, [sp, #7]
1185:Core/Src/lis3dh_driver.c ****     
 3324              		.loc 1 1185 5 is_stmt 1 view .LVU912
1185:Core/Src/lis3dh_driver.c ****     
 3325              		.loc 1 1185 11 is_stmt 0 view .LVU913
 3326 01ca 41F04001 		orr	r1, r1, #64
 3327 01ce 8DF80710 		strb	r1, [sp, #7]
1187:Core/Src/lis3dh_driver.c ****       return MEMS_ERROR;    
 3328              		.loc 1 1187 5 is_stmt 1 view .LVU914
1187:Core/Src/lis3dh_driver.c ****       return MEMS_ERROR;    
 3329              		.loc 1 1187 10 is_stmt 0 view .LVU915
 3330 01d2 2420     		movs	r0, #36
 3331 01d4 FFF7FEFF 		bl	LIS3DH_WriteReg
 3332              	.LVL174:
1187:Core/Src/lis3dh_driver.c ****       return MEMS_ERROR;    
 3333              		.loc 1 1187 7 view .LVU916
 3334 01d8 0346     		mov	r3, r0
 3335 01da 0028     		cmp	r0, #0
ARM GAS  /tmp/ccQFuNLL.s 			page 89


 3336 01dc 3FF41FAF 		beq	.L222
1189:Core/Src/lis3dh_driver.c ****       return MEMS_ERROR;
 3337              		.loc 1 1189 5 is_stmt 1 view .LVU917
1189:Core/Src/lis3dh_driver.c ****       return MEMS_ERROR;
 3338              		.loc 1 1189 10 is_stmt 0 view .LVU918
 3339 01e0 0DF10701 		add	r1, sp, #7
 3340 01e4 2E20     		movs	r0, #46
 3341 01e6 FFF7FEFF 		bl	LIS3DH_ReadReg
 3342              	.LVL175:
1189:Core/Src/lis3dh_driver.c ****       return MEMS_ERROR;
 3343              		.loc 1 1189 7 view .LVU919
 3344 01ea 0346     		mov	r3, r0
 3345 01ec 0028     		cmp	r0, #0
 3346 01ee 3FF416AF 		beq	.L222
1192:Core/Src/lis3dh_driver.c ****     value |= (fm<<LIS3DH_FM);                      //fifo mode configuration
 3347              		.loc 1 1192 5 is_stmt 1 view .LVU920
1192:Core/Src/lis3dh_driver.c ****     value |= (fm<<LIS3DH_FM);                      //fifo mode configuration
 3348              		.loc 1 1192 11 is_stmt 0 view .LVU921
 3349 01f2 9DF80730 		ldrb	r3, [sp, #7]	@ zero_extendqisi2
 3350 01f6 03F01F03 		and	r3, r3, #31
 3351 01fa 8DF80730 		strb	r3, [sp, #7]
1193:Core/Src/lis3dh_driver.c ****     
 3352              		.loc 1 1193 5 is_stmt 1 view .LVU922
1193:Core/Src/lis3dh_driver.c ****     
 3353              		.loc 1 1193 11 is_stmt 0 view .LVU923
 3354 01fe 43EA8413 		orr	r3, r3, r4, lsl #6
 3355 0202 D9B2     		uxtb	r1, r3
 3356 0204 8DF80710 		strb	r1, [sp, #7]
1195:Core/Src/lis3dh_driver.c ****       return MEMS_ERROR;
 3357              		.loc 1 1195 5 is_stmt 1 view .LVU924
1195:Core/Src/lis3dh_driver.c ****       return MEMS_ERROR;
 3358              		.loc 1 1195 10 is_stmt 0 view .LVU925
 3359 0208 2E20     		movs	r0, #46
 3360 020a FFF7FEFF 		bl	LIS3DH_WriteReg
 3361              	.LVL176:
1195:Core/Src/lis3dh_driver.c ****       return MEMS_ERROR;
