ARM GAS  /tmp/ccWFqXNQ.s 			page 1


   1              		.cpu cortex-m3
   2              		.arch armv7-m
   3              		.fpu softvfp
   4              		.eabi_attribute 20, 1
   5              		.eabi_attribute 21, 1
   6              		.eabi_attribute 23, 3
   7              		.eabi_attribute 24, 1
   8              		.eabi_attribute 25, 1
   9              		.eabi_attribute 26, 1
  10              		.eabi_attribute 30, 1
  11              		.eabi_attribute 34, 1
  12              		.eabi_attribute 18, 4
  13              		.file	"Serial.cpp"
  14              		.text
  15              	.Ltext0:
  16              		.cfi_sections	.debug_frame
  17              		.section	.text._ZNK6Serial9availableEv,"ax",%progbits
  18              		.align	1
  19              		.global	_ZNK6Serial9availableEv
  20              		.syntax unified
  21              		.thumb
  22              		.thumb_func
  24              	_ZNK6Serial9availableEv:
  25              	.LVL0:
  26              	.LFB7:
  27              		.file 1 "../../src/Serial.cpp"
   1:../../src/Serial.cpp **** #include "Serial.hpp"
   2:../../src/Serial.cpp **** #include <cstring>
   3:../../src/Serial.cpp **** 
   4:../../src/Serial.cpp **** uint32_t Serial::available() const{
  28              		.loc 1 4 35 view -0
  29              		.cfi_startproc
  30              		@ args = 0, pretend = 0, frame = 0
  31              		@ frame_needed = 0, uses_anonymous_args = 0
  32              		@ link register save eliminated.
   5:../../src/Serial.cpp ****     return this->_avail_in;
  33              		.loc 1 5 5 view .LVU1
   6:../../src/Serial.cpp **** }
  34              		.loc 1 6 1 is_stmt 0 view .LVU2
  35 0000 D0F8D000 		ldr	r0, [r0, #208]
  36              	.LVL1:
  37              		.loc 1 6 1 view .LVU3
  38 0004 7047     		bx	lr
  39              		.cfi_endproc
  40              	.LFE7:
  42              		.section	.text._ZN6Serial10appendCharEc,"ax",%progbits
  43              		.align	1
  44              		.global	_ZN6Serial10appendCharEc
  45              		.syntax unified
  46              		.thumb
  47              		.thumb_func
  49              	_ZN6Serial10appendCharEc:
  50              	.LVL2:
  51              	.LFB8:
   7:../../src/Serial.cpp **** 
   8:../../src/Serial.cpp **** bool Serial::appendChar(char c){
  52              		.loc 1 8 32 is_stmt 1 view -0
ARM GAS  /tmp/ccWFqXNQ.s 			page 2


  53              		.cfi_startproc
  54              		@ args = 0, pretend = 0, frame = 0
  55              		@ frame_needed = 0, uses_anonymous_args = 0
  56              		@ link register save eliminated.
   9:../../src/Serial.cpp ****     if(this->_avail_in < SERIAL_IN_BUFFER_SIZE){
  57              		.loc 1 9 5 view .LVU5
  58              		.loc 1 9 14 is_stmt 0 view .LVU6
  59 0000 D0F8D030 		ldr	r3, [r0, #208]
  60              		.loc 1 9 5 view .LVU7
  61 0004 632B     		cmp	r3, #99
  62 0006 09D8     		bhi	.L4
  10:../../src/Serial.cpp ****         this->_in_buffer[this->_avail_in++] = c;
  63              		.loc 1 10 9 is_stmt 1 view .LVU8
  64              		.loc 1 10 41 is_stmt 0 view .LVU9
  65 0008 5A1C     		adds	r2, r3, #1
  66 000a C0F8D020 		str	r2, [r0, #208]
  67              		.loc 1 10 45 view .LVU10
  68 000e 0344     		add	r3, r3, r0
  69 0010 1971     		strb	r1, [r3, #4]
  11:../../src/Serial.cpp ****         this->_in_buffer[this->_avail_in] = 00; // String delimiter 
  70              		.loc 1 11 9 is_stmt 1 view .LVU11
  71              		.loc 1 11 43 is_stmt 0 view .LVU12
  72 0012 1044     		add	r0, r0, r2
  73              	.LVL3:
  74              		.loc 1 11 43 view .LVU13
  75 0014 0023     		movs	r3, #0
  76 0016 0371     		strb	r3, [r0, #4]
  12:../../src/Serial.cpp ****         return true;
  77              		.loc 1 12 9 is_stmt 1 view .LVU14
  78              		.loc 1 12 16 is_stmt 0 view .LVU15
  79 0018 0120     		movs	r0, #1
  80 001a 7047     		bx	lr
  81              	.LVL4:
  82              	.L4:
  13:../../src/Serial.cpp ****     }else{
  14:../../src/Serial.cpp ****         return false;
  83              		.loc 1 14 16 view .LVU16
  84 001c 0020     		movs	r0, #0
  85              	.LVL5:
  15:../../src/Serial.cpp ****     }
  16:../../src/Serial.cpp **** }
  86              		.loc 1 16 1 view .LVU17
  87 001e 7047     		bx	lr
  88              		.cfi_endproc
  89              	.LFE8:
  91              		.section	.text._ZN6Serial8in_flushEv,"ax",%progbits
  92              		.align	1
  93              		.global	_ZN6Serial8in_flushEv
  94              		.syntax unified
  95              		.thumb
  96              		.thumb_func
  98              	_ZN6Serial8in_flushEv:
  99              	.LVL6:
 100              	.LFB9:
  17:../../src/Serial.cpp **** void Serial::in_flush(){
 101              		.loc 1 17 24 is_stmt 1 view -0
 102              		.cfi_startproc
ARM GAS  /tmp/ccWFqXNQ.s 			page 3


 103              		@ args = 0, pretend = 0, frame = 0
 104              		@ frame_needed = 0, uses_anonymous_args = 0
 105              		@ link register save eliminated.
  18:../../src/Serial.cpp ****     this->_avail_in = 0;
 106              		.loc 1 18 5 view .LVU19
 107              		.loc 1 18 21 is_stmt 0 view .LVU20
 108 0000 0023     		movs	r3, #0
 109 0002 C0F8D030 		str	r3, [r0, #208]
  19:../../src/Serial.cpp **** }
 110              		.loc 1 19 1 view .LVU21
 111 0006 7047     		bx	lr
 112              		.cfi_endproc
 113              	.LFE9:
 115              		.section	.text._ZN6Serial5resetEv,"ax",%progbits
 116              		.align	1
 117              		.global	_ZN6Serial5resetEv
 118              		.syntax unified
 119              		.thumb
 120              		.thumb_func
 122              	_ZN6Serial5resetEv:
 123              	.LVL7:
 124              	.LFB10:
  20:../../src/Serial.cpp **** void Serial::reset(){
 125              		.loc 1 20 21 is_stmt 1 view -0
 126              		.cfi_startproc
 127              		@ args = 0, pretend = 0, frame = 0
 128              		@ frame_needed = 0, uses_anonymous_args = 0
 129              		@ link register save eliminated.
  21:../../src/Serial.cpp ****     this->_avail_in  = 0;
 130              		.loc 1 21 5 view .LVU23
 131              		.loc 1 21 22 is_stmt 0 view .LVU24
 132 0000 0023     		movs	r3, #0
 133 0002 C0F8D030 		str	r3, [r0, #208]
  22:../../src/Serial.cpp ****     this->_avail_out = 0;
 134              		.loc 1 22 5 is_stmt 1 view .LVU25
 135              		.loc 1 22 22 is_stmt 0 view .LVU26
 136 0006 C0F8D430 		str	r3, [r0, #212]
  23:../../src/Serial.cpp **** }
 137              		.loc 1 23 1 view .LVU27
 138 000a 7047     		bx	lr
 139              		.cfi_endproc
 140              	.LFE10:
 142              		.section	.text._ZN6Serial5writeEPKc,"ax",%progbits
 143              		.align	1
 144              		.global	_ZN6Serial5writeEPKc
 145              		.syntax unified
 146              		.thumb
 147              		.thumb_func
 149              	_ZN6Serial5writeEPKc:
 150              	.LVL8:
 151              	.LFB11:
  24:../../src/Serial.cpp **** bool Serial::write(const char * str){
 152              		.loc 1 24 37 is_stmt 1 view -0
 153              		.cfi_startproc
 154              		@ args = 0, pretend = 0, frame = 0
 155              		@ frame_needed = 0, uses_anonymous_args = 0
 156              		.loc 1 24 37 is_stmt 0 view .LVU29
ARM GAS  /tmp/ccWFqXNQ.s 			page 4


 157 0000 70B5     		push	{r4, r5, r6, lr}
 158              	.LCFI0:
 159              		.cfi_def_cfa_offset 16
 160              		.cfi_offset 4, -16
 161              		.cfi_offset 5, -12
 162              		.cfi_offset 6, -8
 163              		.cfi_offset 14, -4
 164 0002 0546     		mov	r5, r0
 165 0004 0E46     		mov	r6, r1
  25:../../src/Serial.cpp ****     uint32_t len = strlen(str);
 166              		.loc 1 25 5 is_stmt 1 view .LVU30
 167              		.loc 1 25 26 is_stmt 0 view .LVU31
 168 0006 0846     		mov	r0, r1
 169              	.LVL9:
 170              		.loc 1 25 26 view .LVU32
 171 0008 FFF7FEFF 		bl	strlen
 172              	.LVL10:
 173              		.loc 1 25 26 view .LVU33
 174 000c 0446     		mov	r4, r0
 175              	.LVL11:
  26:../../src/Serial.cpp ****     return len == this->write( str, len );
 176              		.loc 1 26 5 is_stmt 1 view .LVU34
 177              		.loc 1 26 41 is_stmt 0 view .LVU35
 178 000e 2B68     		ldr	r3, [r5]
 179 0010 5B68     		ldr	r3, [r3, #4]
 180              		.loc 1 26 30 view .LVU36
 181 0012 0246     		mov	r2, r0
 182 0014 3146     		mov	r1, r6
 183 0016 2846     		mov	r0, r5
 184              	.LVL12:
 185              		.loc 1 26 30 view .LVU37
 186 0018 9847     		blx	r3
 187              	.LVL13:
  27:../../src/Serial.cpp **** }
 188              		.loc 1 27 1 view .LVU38
 189 001a A042     		cmp	r0, r4
 190 001c 14BF     		ite	ne
 191 001e 0020     		movne	r0, #0
 192 0020 0120     		moveq	r0, #1
 193 0022 70BD     		pop	{r4, r5, r6, pc}
 194              		.loc 1 27 1 view .LVU39
 195              		.cfi_endproc
 196              	.LFE11:
 198              		.section	.text._ZN6Serial9in_bufferEv,"ax",%progbits
 199              		.align	1
 200              		.global	_ZN6Serial9in_bufferEv
 201              		.syntax unified
 202              		.thumb
 203              		.thumb_func
 205              	_ZN6Serial9in_bufferEv:
 206              	.LVL14:
 207              	.LFB12:
  28:../../src/Serial.cpp **** const char * Serial::in_buffer(){
 208              		.loc 1 28 33 is_stmt 1 view -0
 209              		.cfi_startproc
 210              		@ args = 0, pretend = 0, frame = 0
 211              		@ frame_needed = 0, uses_anonymous_args = 0
ARM GAS  /tmp/ccWFqXNQ.s 			page 5


 212              		@ link register save eliminated.
  29:../../src/Serial.cpp ****     return this->_in_buffer;
 213              		.loc 1 29 5 view .LVU41
  30:../../src/Serial.cpp **** }
 214              		.loc 1 30 1 is_stmt 0 view .LVU42
 215 0000 0430     		adds	r0, r0, #4
 216              	.LVL15:
 217              		.loc 1 30 1 view .LVU43
 218 0002 7047     		bx	lr
 219              		.cfi_endproc
 220              	.LFE12:
 222              		.section	.text._ZN6Serial4readEPcm,"ax",%progbits
 223              		.align	1
 224              		.global	_ZN6Serial4readEPcm
 225              		.syntax unified
 226              		.thumb
 227              		.thumb_func
 229              	_ZN6Serial4readEPcm:
 230              	.LVL16:
 231              	.LFB13:
  31:../../src/Serial.cpp **** 
  32:../../src/Serial.cpp **** uint32_t Serial::read(char * str, uint32_t len){
 232              		.loc 1 32 48 is_stmt 1 view -0
 233              		.cfi_startproc
 234              		@ args = 0, pretend = 0, frame = 0
 235              		@ frame_needed = 0, uses_anonymous_args = 0
 236              		.loc 1 32 48 is_stmt 0 view .LVU45
 237 0000 70B5     		push	{r4, r5, r6, lr}
 238              	.LCFI1:
 239              		.cfi_def_cfa_offset 16
 240              		.cfi_offset 4, -16
 241              		.cfi_offset 5, -12
 242              		.cfi_offset 6, -8
 243              		.cfi_offset 14, -4
 244 0002 0446     		mov	r4, r0
 245 0004 0846     		mov	r0, r1
 246              	.LVL17:
  33:../../src/Serial.cpp ****     uint32_t l = len > this->_avail_in ? this->_avail_in: len;
 247              		.loc 1 33 5 is_stmt 1 view .LVU46
 248              		.loc 1 33 30 is_stmt 0 view .LVU47
 249 0006 D4F8D050 		ldr	r5, [r4, #208]
 250              		.loc 1 33 40 view .LVU48
 251 000a 9542     		cmp	r5, r2
 252 000c 00D3     		bcc	.L11
 253 000e 1546     		mov	r5, r2
 254              	.L11:
 255              	.LVL18:
  34:../../src/Serial.cpp ****     memcpy( str, this->_in_buffer, l );
 256              		.loc 1 34 5 is_stmt 1 discriminator 4 view .LVU49
 257              		.loc 1 34 24 is_stmt 0 discriminator 4 view .LVU50
 258 0010 261D     		adds	r6, r4, #4
 259              		.loc 1 34 11 discriminator 4 view .LVU51
 260 0012 2A46     		mov	r2, r5
 261              	.LVL19:
 262              		.loc 1 34 11 discriminator 4 view .LVU52
 263 0014 3146     		mov	r1, r6
 264              	.LVL20:
ARM GAS  /tmp/ccWFqXNQ.s 			page 6


 265              		.loc 1 34 11 discriminator 4 view .LVU53
 266 0016 FFF7FEFF 		bl	memcpy
 267              	.LVL21:
  35:../../src/Serial.cpp ****     // Restore in buffer
  36:../../src/Serial.cpp ****     memcpy( this->_in_buffer, this->_in_buffer+l, this->_avail_in-l );
 268              		.loc 1 36 5 is_stmt 1 discriminator 4 view .LVU54
 269              		.loc 1 36 57 is_stmt 0 discriminator 4 view .LVU55
 270 001a D4F8D020 		ldr	r2, [r4, #208]
 271              		.loc 1 36 11 discriminator 4 view .LVU56
 272 001e 521B     		subs	r2, r2, r5
 273 0020 7119     		adds	r1, r6, r5
 274 0022 3046     		mov	r0, r6
 275 0024 FFF7FEFF 		bl	memcpy
 276              	.LVL22:
  37:../../src/Serial.cpp ****     this->_avail_in-=l;
 277              		.loc 1 37 5 is_stmt 1 discriminator 4 view .LVU57
 278              		.loc 1 37 20 is_stmt 0 discriminator 4 view .LVU58
 279 0028 D4F8D030 		ldr	r3, [r4, #208]
 280 002c 5B1B     		subs	r3, r3, r5
 281 002e C4F8D030 		str	r3, [r4, #208]
  38:../../src/Serial.cpp ****     return l;
 282              		.loc 1 38 5 is_stmt 1 discriminator 4 view .LVU59
  39:../../src/Serial.cpp **** }
 283              		.loc 1 39 1 is_stmt 0 discriminator 4 view .LVU60
 284 0032 2846     		mov	r0, r5
 285 0034 70BD     		pop	{r4, r5, r6, pc}
 286              		.loc 1 39 1 discriminator 4 view .LVU61
 287              		.cfi_endproc
 288              	.LFE13:
 290              		.text
 291              	.Letext0:
 292              		.file 2 "/home/luca/gcc-arm-none-eabi-10.3-2021.10/arm-none-eabi/include/c++/10.3.1/cstdint"
 293              		.file 3 "/home/luca/gcc-arm-none-eabi-10.3-2021.10/arm-none-eabi/include/c++/10.3.1/cstring"
 294              		.file 4 "/home/luca/gcc-arm-none-eabi-10.3-2021.10/arm-none-eabi/include/c++/10.3.1/arm-none-eabi/
 295              		.file 5 "/home/luca/gcc-arm-none-eabi-10.3-2021.10/arm-none-eabi/include/machine/_default_types.h"
 296              		.file 6 "/home/luca/gcc-arm-none-eabi-10.3-2021.10/arm-none-eabi/include/sys/_stdint.h"
 297              		.file 7 "/home/luca/gcc-arm-none-eabi-10.3-2021.10/arm-none-eabi/include/stdint.h"
 298              		.file 8 "/home/luca/gcc-arm-none-eabi-10.3-2021.10/lib/gcc/arm-none-eabi/10.3.1/include/stddef.h"
 299              		.file 9 "/home/luca/gcc-arm-none-eabi-10.3-2021.10/arm-none-eabi/include/string.h"
 300              		.file 10 "<built-in>"
ARM GAS  /tmp/ccWFqXNQ.s 			page 7

